(ideluge.core.torrentmanager
TorrentManagerState
p1
(dp2
S'torrents'
p3
(lp4
(ideluge.core.torrentmanager
TorrentState
p5
(dp6
S'max_download_speed'
p7
F-1
sS'move_completed_path'
p8
S'/home/defaultuser/Downloads'
p9
sS'paused'
p10
I01
sS'max_upload_slots'
p11
I-1
sS'prioritize_first_last'
p12
I00
sS'max_connections'
p13
I-1
sS'compact'
p14
I00
sS'queue'
p15
I50
sS'file_priorities'
p16
(lp17
I4
aI4
aI4
aI4
aI4
aI4
aI4
aI4
aI4
asS'filename'
p18
S'8de4288999452168089dd6ca253394bc26c0b35c'
p19
sS'max_upload_speed'
p20
F-1
sS'save_path'
p21
S'/home/defaultuser/Music'
p22
sS'time_added'
p23
F1521144154.384475
sS'total_uploaded'
p24
I9741037
sS'torrent_id'
p25
S'8de4288999452168089dd6ca253394bc26c0b35c'
p26
sS'auto_managed'
p27
I01
sS'stop_at_ratio'
p28
I00
sS'move_completed'
p29
I00
sS'trackers'
p30
(lp31
(dp32
S'send_stats'
p33
I01
sS'fails'
p34
I0
sS'verified'
p35
I00
sS'scrape_incomplete'
p36
I-1
sS'min_announce'
p37
NsS'scrape_downloaded'
p38
I-1
sS'url'
p39
S'http://bt3.t-ru.org/ann?magnet'
p40
sS'last_error'
p41
(dp42
S'category'
p43
S'system'
p44
sS'value'
p45
I0
ssS'fail_limit'
p46
I0
sS'next_announce'
p47
NsS'complete_sent'
p48
I00
sS'source'
p49
I4
sS'trackerid'
p50
S''
sS'start_sent'
p51
I00
sS'tier'
p52
I0
sS'scrape_complete'
p53
I-1
sS'message'
p54
S''
sS'updating'
p55
I00
sasS'magnet'
p56
NsS'remove_at_ratio'
p57
I00
sS'stop_ratio'
p58
F2
sS'is_finished'
p59
I00
sba(ideluge.core.torrentmanager
TorrentState
p60
(dp61
g7
F-1
sg8
S'/home/defaultuser/Downloads'
p62
sg10
I01
sg11
I-1
sg12
I00
sg13
I-1
sg14
I00
sg15
I32
sg16
(lp63
I1
aI1
aI1
aI1
aI1
aI1
aI1
aI1
asg18
S'(Synthpop, Retrowave, 80s, Electronic) [WEB] The Midnight - Nocturnal - 2017, FLAC (tracks), lossless [rutracker-5465796].torrent'
p64
sg20
F-1
sg21
S'/home/defaultuser/Music'
p65
sg23
F1521191884.6978731
sg24
I0
sg25
S'cb5e17587fac02a4427920e2e22536b8aa248a4f'
p66
sg27
I01
sg28
I00
sg29
I00
sg30
(lp67
(dp68
S'send_stats'
p69
I01
sS'fails'
p70
I0
sS'verified'
p71
I00
sS'scrape_incomplete'
p72
I-1
sS'min_announce'
p73
NsS'scrape_downloaded'
p74
I-1
sS'url'
p75
S'http://bt.t-ru.org/ann'
p76
sS'last_error'
p77
(dp78
S'category'
p79
S'system'
p80
sS'value'
p81
I0
ssS'fail_limit'
p82
I0
sS'next_announce'
p83
NsS'complete_sent'
p84
I00
sS'source'
p85
I1
sS'trackerid'
p86
S''
sS'start_sent'
p87
I00
sS'tier'
p88
I0
sS'scrape_complete'
p89
I-1
sS'message'
p90
S''
sS'updating'
p91
I00
sa(dp92
S'send_stats'
p93
I01
sS'fails'
p94
I0
sS'verified'
p95
I00
sS'scrape_incomplete'
p96
I-1
sS'min_announce'
p97
NsS'scrape_downloaded'
p98
I-1
sS'url'
p99
S'http://retracker.local/announce'
p100
sS'last_error'
p101
(dp102
S'category'
p103
S'system'
p104
sS'value'
p105
I0
ssS'fail_limit'
p106
I0
sS'next_announce'
p107
NsS'complete_sent'
p108
I00
sS'source'
p109
I1
sS'trackerid'
p110
S''
sS'start_sent'
p111
I00
sS'tier'
p112
I1
sS'scrape_complete'
p113
I-1
sS'message'
p114
S''
sS'updating'
p115
I00
sasg56
Nsg57
I00
sg58
F2
sg59
I00
sba(ideluge.core.torrentmanager
TorrentState
p116
(dp117
g7
F-1
sg8
S'/home/defaultuser/Downloads'
p118
sg10
I01
sg11
I-1
sg12
I00
sg13
I-1
sg14
I00
sg15
I49
sg16
(lp119
I1
aI1
aI1
aI1
aI1
aI1
aI1
aI1
aI1
aI1
aI1
aI1
aI1
aI1
aI1
asg18
S'(80s electronic chillout electro outrun) [WEB] Waveshaper - Exploration 84 - 2015, FLAC (tracks), lossless [rutracker-5235644].torrent'
p120
sg20
F-1
sg21
S'/home/defaultuser/Music'
p121
sg23
F1521192055.3647299
sg24
I0
sg25
S'abf180df3e3e5d2fbdfc36ce8c812a3f9d1ff910'
p122
sg27
I01
sg28
I00
sg29
I00
sg30
(lp123
(dp124
S'send_stats'
p125
I01
sS'fails'
p126
I0
sS'verified'
p127
I00
sS'scrape_incomplete'
p128
I-1
sS'min_announce'
p129
NsS'scrape_downloaded'
p130
I-1
sS'url'
p131
S'http://bt4.t-ru.org/ann'
p132
sS'last_error'
p133
(dp134
S'category'
p135
S'system'
p136
sS'value'
p137
I0
ssS'fail_limit'
p138
I0
sS'next_announce'
p139
NsS'complete_sent'
p140
I00
sS'source'
p141
I1
sS'trackerid'
p142
S''
sS'start_sent'
p143
I00
sS'tier'
p144
I0
sS'scrape_complete'
p145
I-1
sS'message'
p146
S''
sS'updating'
p147
I00
sa(dp148
S'send_stats'
p149
I01
sS'fails'
p150
I0
sS'verified'
p151
I00
sS'scrape_incomplete'
p152
I-1
sS'min_announce'
p153
NsS'scrape_downloaded'
p154
I-1
sS'url'
p155
S'http://retracker.local/announce'
p156
sS'last_error'
p157
(dp158
S'category'
p159
S'system'
p160
sS'value'
p161
I0
ssS'fail_limit'
p162
I0
sS'next_announce'
p163
NsS'complete_sent'
p164
I00
sS'source'
p165
I1
sS'trackerid'
p166
S''
sS'start_sent'
p167
I00
sS'tier'
p168
I1
sS'scrape_complete'
p169
I-1
sS'message'
p170
S''
sS'updating'
p171
I00
sasg56
Nsg57
I00
sg58
F2
sg59
I00
sba(ideluge.core.torrentmanager
TorrentState
p172
(dp173
g7
F-1
sg8
S'/home/defaultuser/Downloads'
p174
sg10
I01
sg11
I-1
sg12
I00
sg13
I-1
sg14
I00
sg15
I42
sg16
(lp175
I1
aI1
aI1
aI1
aI1
aI1
aI1
aI1
aI1
aI1
aI1
aI1
aI1
aI1
aI1
aI1
aI1
aI1
aI1
aI1
aI1
aI1
aI1
aI1
aI1
aI1
aI1
aI1
aI1
aI1
aI1
aI1
aI1
aI1
aI1
aI1
aI1
aI1
aI1
aI1
aI1
aI1
aI1
aI1
aI1
asg18
S'(Electro, Synthwave, Dreamwave) [WEB] Lazerhawk - Discography (3 releases) - 2010-2013, FLAC (tracks), lossless [rutracker-4621512].torrent'
p176
sg20
F-1
sg21
S'/home/defaultuser/Music'
p177
sg23
F1521191916.7093029
sg24
I0
sg25
S'18e364b4645510168af39f8440b24efcff60be1f'
p178
sg27
I01
sg28
I00
sg29
I00
sg30
(lp179
(dp180
S'send_stats'
p181
I01
sS'fails'
p182
I0
sS'verified'
p183
I00
sS'scrape_incomplete'
p184
I-1
sS'min_announce'
p185
NsS'scrape_downloaded'
p186
I-1
sS'url'
p187
S'http://bt.t-ru.org/ann'
p188
sS'last_error'
p189
(dp190
S'category'
p191
S'system'
p192
sS'value'
p193
I0
ssS'fail_limit'
p194
I0
sS'next_announce'
p195
NsS'complete_sent'
p196
I00
sS'source'
p197
I1
sS'trackerid'
p198
S''
sS'start_sent'
p199
I00
sS'tier'
p200
I0
sS'scrape_complete'
p201
I-1
sS'message'
p202
S''
sS'updating'
p203
I00
sa(dp204
S'send_stats'
p205
I01
sS'fails'
p206
I0
sS'verified'
p207
I00
sS'scrape_incomplete'
p208
I-1
sS'min_announce'
p209
NsS'scrape_downloaded'
p210
I-1
sS'url'
p211
S'http://retracker.local/announce'
p212
sS'last_error'
p213
(dp214
S'category'
p215
S'system'
p216
sS'value'
p217
I0
ssS'fail_limit'
p218
I0
sS'next_announce'
p219
NsS'complete_sent'
p220
I00
sS'source'
p221
I1
sS'trackerid'
p222
S''
sS'start_sent'
p223
I00
sS'tier'
p224
I1
sS'scrape_complete'
p225
I-1
sS'message'
p226
S''
sS'updating'
p227
I00
sasg56
Nsg57
I00
sg58
F2
sg59
I00
sba(ideluge.core.torrentmanager
TorrentState
p228
(dp229
g7
F-1
sg8
S'/home/defaultuser/Downloads'
p230
sg10
I01
sg11
I-1
sg12
I00
sg13
I-1
sg14
I00
sg15
I0
sg16
(lp231
I0
aI0
aI0
aI0
aI0
aI0
aI0
aI0
aI1
asg18
S'\xd0\x9c\xd0\xb8\xd1\x80 \xd0\x94\xd0\xb8\xd0\xba\xd0\xbe\xd0\xb3\xd0\xbe \xd0\xb7\xd0\xb0\xd0\xbf\xd0\xb0\xd0\xb4\xd0\xb0 Westworld \xd0\xa1\xd0\xb5\xd0\xb7\xd0\xbe\xd0\xbd 2 \xd0\xa1\xd0\xb5\xd1\x80\xd0\xb8\xd0\xb8 1-9 (10) (\xd0\xa0\xd0\xb8\xd1\x87\xd0\xb0\xd1\x80\xd0\xb4 \xd0\x94\xd0\xb6. \xd0\x9b\xd1\x8c\xd1\x8e\xd0\xb8\xd1\x81, \xd0\x92\xd0\xb8\xd0\xbd\xd1\x87\xd0\xb5\xd0\xbd\xd1\x86\xd0\xbe \xd0\x9d\xd0\xb0\xd1\x82\xd0\xb0\xd0\xbb\xd0\xb8, \xd0\x94\xd0\xb6\xd0\xbe\xd0\xbd\xd0\xb0\xd1\x82\xd0\xb0\xd0\xbd \xd0\x9d\xd0\xbe\xd0\xbb\xd0\xb0\xd0\xbd) [2018, \xd0\xa1\xd0\xa8\xd0\x90, \xd1\x84\xd0\xb0\xd0\xbd\xd1\x82\xd0\xb0\xd1\x81\xd1\x82 [rutracker-5552426].torrent'
p232
sg20
F-1
sg21
S'/home/win/e'
p233
sg23
F1529335477.007005
sg24
I5639880936
sg25
S'a3c481c080eb0d60f3ae83ae2be4d345b696db58'
p234
sg27
I01
sg28
I00
sg29
I00
sg30
(lp235
(dp236
S'send_stats'
p237
I01
sS'fails'
p238
I0
sS'verified'
p239
I00
sS'scrape_incomplete'
p240
I-1
sS'min_announce'
p241
NsS'scrape_downloaded'
p242
I-1
sS'url'
p243
S'http://bt.t-ru.org/ann'
p244
sS'last_error'
p245
(dp246
S'category'
p247
S'system'
p248
sS'value'
p249
I0
ssS'fail_limit'
p250
I0
sS'next_announce'
p251
NsS'complete_sent'
p252
I00
sS'source'
p253
I1
sS'trackerid'
p254
S''
sS'start_sent'
p255
I00
sS'tier'
p256
I0
sS'scrape_complete'
p257
I-1
sS'message'
p258
S''
sS'updating'
p259
I00
sa(dp260
S'send_stats'
p261
I01
sS'fails'
p262
I0
sS'verified'
p263
I00
sS'scrape_incomplete'
p264
I-1
sS'min_announce'
p265
NsS'scrape_downloaded'
p266
I-1
sS'url'
p267
S'http://retracker.local/announce'
p268
sS'last_error'
p269
(dp270
S'category'
p271
S'system'
p272
sS'value'
p273
I0
ssS'fail_limit'
p274
I0
sS'next_announce'
p275
NsS'complete_sent'
p276
I00
sS'source'
p277
I1
sS'trackerid'
p278
S''
sS'start_sent'
p279
I00
sS'tier'
p280
I1
sS'scrape_complete'
p281
I-1
sS'message'
p282
S''
sS'updating'
p283
I00
sasg56
Nsg57
I00
sg58
F2
sg59
I01
sba(ideluge.core.torrentmanager
TorrentState
p284
(dp285
g7
F-1
sg8
S'/home/defaultuser/Downloads'
p286
sg10
I00
sg11
I-1
sg12
I00
sg13
I-1
sg14
I00
sg15
I1
sg16
(lp287
I4
aI4
asg18
S'563f8b4ea5ab009f6d6cd5579a6db4dde10578b5'
p288
sg20
F-1
sg21
S'/home/win/e'
p289
sg23
F1528541072.6942899
sg24
I0
sg25
S'563f8b4ea5ab009f6d6cd5579a6db4dde10578b5'
p290
sg27
I01
sg28
I00
sg29
I00
sg30
(lp291
(dp292
S'send_stats'
p293
I01
sS'fails'
p294
I0
sS'verified'
p295
I00
sS'scrape_incomplete'
p296
I-1
sS'min_announce'
p297
NsS'source'
p298
I4
sS'url'
p299
S'http://bt.t-ru.org/ann?magnet'
p300
sS'last_error'
p301
(dp302
S'category'
p303
S'system'
p304
sS'value'
p305
I0
ssS'fail_limit'
p306
I0
sS'next_announce'
p307
NsS'complete_sent'
p308
I00
sS'scrape_downloaded'
p309
I-1
sS'trackerid'
p310
S''
sS'start_sent'
p311
I00
sS'tier'
p312
I0
sS'scrape_complete'
p313
I-1
sS'message'
p314
S''
sS'updating'
p315
I00
sasg56
Nsg57
I00
sg58
F2
sg59
I01
sba(ideluge.core.torrentmanager
TorrentState
p316
(dp317
g7
F-1
sg8
S'/home/defaultuser/Downloads'
p318
sg10
I00
sg11
I-1
sg12
I00
sg13
I-1
sg14
I00
sg15
I8
sg16
(lp319
I4
aI4
aI4
aI4
aI4
aI4
aI4
aI4
aI4
aI4
aI4
aI4
aI4
aI4
aI4
aI4
aI4
aI4
aI4
aI4
aI4
aI4
aI4
aI4
aI4
asg18
S'9332cec681c5803bb955931057b39ccce7f82cf1'
p320
sg20
F-1
sg21
S'/home/win/e/Music'
p321
sg23
F1520528750.903748
sg24
I345969374
sg25
S'9332cec681c5803bb955931057b39ccce7f82cf1'
p322
sg27
I01
sg28
I00
sg29
I00
sg30
(lp323
(dp324
S'send_stats'
p325
I01
sS'fails'
p326
I0
sS'verified'
p327
I00
sS'scrape_incomplete'
p328
I-1
sS'min_announce'
p329
NsS'source'
p330
I4
sS'url'
p331
S'http://bt3.t-ru.org/ann?magnet'
p332
sS'last_error'
p333
(dp334
S'category'
p335
S'system'
p336
sS'value'
p337
I0
ssS'fail_limit'
p338
I0
sS'next_announce'
p339
NsS'complete_sent'
p340
I00
sS'scrape_downloaded'
p341
I-1
sS'trackerid'
p342
S''
sS'start_sent'
p343
I00
sS'tier'
p344
I0
sS'scrape_complete'
p345
I-1
sS'message'
p346
S''
sS'updating'
p347
I00
sasg56
Nsg57
I00
sg58
F2
sg59
I01
sba(ideluge.core.torrentmanager
TorrentState
p348
(dp349
g7
F-1
sg8
S'/home/defaultuser/Downloads'
p350
sg10
I01
sg11
I-1
sg12
I00
sg13
I-1
sg14
I00
sg15
I25
sg16
(lp351
I1
aI1
aI1
aI1
aI1
aI1
aI1
aI1
aI1
aI1
aI1
aI1
aI1
aI1
aI1
aI1
aI1
aI1
aI1
aI1
aI1
aI1
aI1
aI1
aI1
aI1
aI1
aI1
aI1
aI1
aI1
asg18
S'(Score) Far Cry 3 Blood Dragon Original Game Soundtrack (by Power Glove) - 2013, FLAC (tracks+.cue), lossless [rutracker-4427862].torrent'
p352
sg20
F-1
sg21
S'/home/defaultuser/Music'
p353
sg23
F1521192031.015568
sg24
I0
sg25
S'5fa60480c50b9886307aa4a9644c75a10e2baedc'
p354
sg27
I01
sg28
I00
sg29
I00
sg30
(lp355
(dp356
S'send_stats'
p357
I01
sS'fails'
p358
I0
sS'verified'
p359
I00
sS'scrape_incomplete'
p360
I-1
sS'min_announce'
p361
NsS'source'
p362
I2
sS'url'
p363
S'http://bt2.t-ru.org/ann'
p364
sS'last_error'
p365
(dp366
S'category'
p367
S'system'
p368
sS'value'
p369
I0
ssS'fail_limit'
p370
I0
sS'next_announce'
p371
NsS'complete_sent'
p372
I00
sS'scrape_downloaded'
p373
I-1
sS'trackerid'
p374
S''
sS'start_sent'
p375
I00
sS'tier'
p376
I0
sS'scrape_complete'
p377
I-1
sS'message'
p378
S''
sS'updating'
p379
I00
sa(dp380
S'send_stats'
p381
I01
sS'fails'
p382
I0
sS'verified'
p383
I00
sS'scrape_incomplete'
p384
I-1
sS'min_announce'
p385
NsS'source'
p386
I2
sS'url'
p387
S'http://retracker.local/announce'
p388
sS'last_error'
p389
(dp390
S'category'
p391
S'system'
p392
sS'value'
p393
I0
ssS'fail_limit'
p394
I0
sS'next_announce'
p395
NsS'complete_sent'
p396
I00
sS'scrape_downloaded'
p397
I-1
sS'trackerid'
p398
S''
sS'start_sent'
p399
I00
sS'tier'
p400
I1
sS'scrape_complete'
p401
I-1
sS'message'
p402
S''
sS'updating'
p403
I00
sasg56
Nsg57
I00
sg58
F2
sg59
I00
sba(ideluge.core.torrentmanager
TorrentState
p404
(dp405
g7
F-1
sg8
S'/home/defaultuser/Downloads'
p406
sg10
I01
sg11
I-1
sg12
I00
sg13
I-1
sg14
I00
sg15
I9
sg16
(lp407
I1
aI1
aI1
aI1
aI1
aI1
aI1
aI1
aI1
aI1
asg18
S'(80s Horrorsynth Retrowave Synthwave French Touch) [WEB] Carpenter Brut - Leather Teeth - 2018, FLAC (tracks), lossless [rutracker-5524850].torrent'
p408
sg20
F-1
sg21
S'/home/win/e/Music'
p409
sg23
F1520527865.0229111
sg24
I26643179
sg25
S'80f10d5ed617203d66d9de0fa00c76486060e0de'
p410
sg27
I01
sg28
I00
sg29
I00
sg30
(lp411
(dp412
S'send_stats'
p413
I01
sS'fails'
p414
I0
sS'verified'
p415
I00
sS'scrape_incomplete'
p416
I-1
sS'min_announce'
p417
NsS'source'
p418
I1
sS'url'
p419
S'http://bt.t-ru.org/ann'
p420
sS'last_error'
p421
(dp422
S'category'
p423
S'system'
p424
sS'value'
p425
I0
ssS'fail_limit'
p426
I0
sS'next_announce'
p427
NsS'complete_sent'
p428
I00
sS'scrape_downloaded'
p429
I-1
sS'trackerid'
p430
S''
sS'start_sent'
p431
I00
sS'tier'
p432
I0
sS'scrape_complete'
p433
I-1
sS'message'
p434
S''
sS'updating'
p435
I00
sa(dp436
S'send_stats'
p437
I01
sS'fails'
p438
I0
sS'verified'
p439
I00
sS'scrape_incomplete'
p440
I-1
sS'min_announce'
p441
NsS'source'
p442
I1
sS'url'
p443
S'http://retracker.local/announce'
p444
sS'last_error'
p445
(dp446
S'category'
p447
S'system'
p448
sS'value'
p449
I0
ssS'fail_limit'
p450
I0
sS'next_announce'
p451
NsS'complete_sent'
p452
I00
sS'scrape_downloaded'
p453
I-1
sS'trackerid'
p454
S''
sS'start_sent'
p455
I00
sS'tier'
p456
I1
sS'scrape_complete'
p457
I-1
sS'message'
p458
S''
sS'updating'
p459
I00
sasg56
Nsg57
I00
sg58
F2
sg59
I01
sba(ideluge.core.torrentmanager
TorrentState
p460
(dp461
g7
F-1
sg8
S'/home/defaultuser/Downloads'
p462
sg10
I01
sg11
I-1
sg12
I00
sg13
I-1
sg14
I00
sg15
I28
sg16
(lp463
I1
aI1
aI1
aI1
aI1
aI1
aI1
aI1
aI1
aI1
aI1
aI1
asg18
S'(dreamwave retrowave synthpop) [WEB] FM-84 - Atlas - 2016, FLAC (tracks), lossless [rutracker-5305372].torrent'
p464
sg20
F-1
sg21
S'/home/defaultuser/Music'
p465
sg23
F1521191985.6536069
sg24
I0
sg25
S'eae6de8e1107020e9d2588167a1822b35625cc04'
p466
sg27
I01
sg28
I00
sg29
I00
sg30
(lp467
(dp468
S'send_stats'
p469
I01
sS'fails'
p470
I0
sS'verified'
p471
I00
sS'scrape_incomplete'
p472
I-1
sS'min_announce'
p473
NsS'source'
p474
I2
sS'url'
p475
S'http://bt.t-ru.org/ann'
p476
sS'last_error'
p477
(dp478
S'category'
p479
S'system'
p480
sS'value'
p481
I0
ssS'fail_limit'
p482
I0
sS'next_announce'
p483
NsS'complete_sent'
p484
I00
sS'scrape_downloaded'
p485
I-1
sS'trackerid'
p486
S''
sS'start_sent'
p487
I00
sS'tier'
p488
I0
sS'scrape_complete'
p489
I-1
sS'message'
p490
S''
sS'updating'
p491
I00
sa(dp492
S'send_stats'
p493
I01
sS'fails'
p494
I0
sS'verified'
p495
I00
sS'scrape_incomplete'
p496
I-1
sS'min_announce'
p497
NsS'source'
p498
I2
sS'url'
p499
S'http://retracker.local/announce'
p500
sS'last_error'
p501
(dp502
S'category'
p503
S'system'
p504
sS'value'
p505
I0
ssS'fail_limit'
p506
I0
sS'next_announce'
p507
NsS'complete_sent'
p508
I00
sS'scrape_downloaded'
p509
I-1
sS'trackerid'
p510
S''
sS'start_sent'
p511
I00
sS'tier'
p512
I1
sS'scrape_complete'
p513
I-1
sS'message'
p514
S''
sS'updating'
p515
I00
sasg56
Nsg57
I00
sg58
F2
sg59
I00
sba(ideluge.core.torrentmanager
TorrentState
p516
(dp517
g7
F-1
sg8
S'/home/defaultuser/Downloads'
p518
sg10
I01
sg11
I-1
sg12
I00
sg13
I-1
sg14
I00
sg15
I10
sg16
(lp519
I1
aI1
aI1
aI1
aI1
aI1
aI1
aI1
aI1
aI1
aI1
aI1
aI1
aI1
aI1
asg18
S'(Synthwave) [WEB] Magic Sword - Volume 1 - 2015, FLAC (tracks), lossless [rutracker-4948680].torrent'
p520
sg20
F-1
sg21
S'/home/win/e/Music'
p521
sg23
F1520527975.6043279
sg24
I9674328
sg25
S'43472bab4ec132e0a07ec74120c07ebfc1407963'
p522
sg27
I01
sg28
I00
sg29
I00
sg30
(lp523
(dp524
S'send_stats'
p525
I01
sS'fails'
p526
I0
sS'verified'
p527
I00
sS'scrape_incomplete'
p528
I-1
sS'min_announce'
p529
NsS'source'
p530
I1
sS'url'
p531
S'http://bt.t-ru.org/ann'
p532
sS'last_error'
p533
(dp534
S'category'
p535
S'system'
p536
sS'value'
p537
I0
ssS'fail_limit'
p538
I0
sS'next_announce'
p539
NsS'complete_sent'
p540
I00
sS'scrape_downloaded'
p541
I-1
sS'trackerid'
p542
S''
sS'start_sent'
p543
I00
sS'tier'
p544
I0
sS'scrape_complete'
p545
I-1
sS'message'
p546
S''
sS'updating'
p547
I00
sa(dp548
S'send_stats'
p549
I01
sS'fails'
p550
I0
sS'verified'
p551
I00
sS'scrape_incomplete'
p552
I-1
sS'min_announce'
p553
NsS'source'
p554
I1
sS'url'
p555
S'http://retracker.local/announce'
p556
sS'last_error'
p557
(dp558
S'category'
p559
S'system'
p560
sS'value'
p561
I0
ssS'fail_limit'
p562
I0
sS'next_announce'
p563
NsS'complete_sent'
p564
I00
sS'scrape_downloaded'
p565
I-1
sS'trackerid'
p566
S''
sS'start_sent'
p567
I00
sS'tier'
p568
I1
sS'scrape_complete'
p569
I-1
sS'message'
p570
S''
sS'updating'
p571
I00
sasg56
Nsg57
I00
sg58
F2
sg59
I01
sba(ideluge.core.torrentmanager
TorrentState
p572
(dp573
g7
F-1
sg8
S'/home/defaultuser/Downloads'
p574
sg10
I01
sg11
I-1
sg12
I00
sg13
I-1
sg14
I00
sg15
I4
sg16
(lp575
I1
aI1
aI0
aI0
aI0
aI0
aI0
aI0
aI0
aI0
aI0
aI0
aI0
aI0
aI0
aI0
aI0
aI0
aI0
aI0
aI0
aI0
aI0
aI0
aI0
aI0
aI0
aI0
aI1
aI0
aI0
aI0
asg18
S'[Sephirotic]Neon Genesis Evangelion 1-26 DC+EoE [MULTI][BD 1080p 8bits v2.22] COMPLETE.torrent'
p576
sg20
F-1
sg21
S'/home/win/e'
p577
sg23
F1527002038.832423
sg24
I1257618409
sg25
S'231290e5a748373f0f266956ec17ac2f8a8fa06e'
p578
sg27
I01
sg28
I00
sg29
I00
sg30
(lp579
(dp580
S'send_stats'
p581
I01
sS'fails'
p582
I0
sS'verified'
p583
I00
sS'scrape_incomplete'
p584
I-1
sS'min_announce'
p585
NsS'source'
p586
I1
sS'url'
p587
S'http://nyaa.tracker.wf:7777/announce'
p588
sS'last_error'
p589
(dp590
S'category'
p591
S'system'
p592
sS'value'
p593
I0
ssS'fail_limit'
p594
I0
sS'next_announce'
p595
NsS'complete_sent'
p596
I00
sS'scrape_downloaded'
p597
I-1
sS'trackerid'
p598
S''
sS'start_sent'
p599
I00
sS'tier'
p600
I0
sS'scrape_complete'
p601
I-1
sS'message'
p602
S''
sS'updating'
p603
I00
sa(dp604
S'send_stats'
p605
I01
sS'fails'
p606
I0
sS'verified'
p607
I00
sS'scrape_incomplete'
p608
I-1
sS'min_announce'
p609
NsS'source'
p610
I1
sS'url'
p611
S'http://open.nyaatorrents.info:6544/announce'
p612
sS'last_error'
p613
(dp614
S'category'
p615
S'system'
p616
sS'value'
p617
I0
ssS'fail_limit'
p618
I0
sS'next_announce'
p619
NsS'complete_sent'
p620
I00
sS'scrape_downloaded'
p621
I-1
sS'trackerid'
p622
S''
sS'start_sent'
p623
I00
sS'tier'
p624
I1
sS'scrape_complete'
p625
I-1
sS'message'
p626
S''
sS'updating'
p627
I00
sa(dp628
S'send_stats'
p629
I01
sS'fails'
p630
I0
sS'verified'
p631
I00
sS'scrape_incomplete'
p632
I-1
sS'min_announce'
p633
NsS'source'
p634
I1
sS'url'
p635
S'udp://open.stealth.si:80/announce'
p636
sS'last_error'
p637
(dp638
S'category'
p639
S'system'
p640
sS'value'
p641
I0
ssS'fail_limit'
p642
I0
sS'next_announce'
p643
NsS'complete_sent'
p644
I00
sS'scrape_downloaded'
p645
I-1
sS'trackerid'
p646
S''
sS'start_sent'
p647
I00
sS'tier'
p648
I2
sS'scrape_complete'
p649
I-1
sS'message'
p650
S''
sS'updating'
p651
I00
sa(dp652
S'send_stats'
p653
I01
sS'fails'
p654
I0
sS'verified'
p655
I00
sS'scrape_incomplete'
p656
I-1
sS'min_announce'
p657
NsS'source'
p658
I1
sS'url'
p659
S'udp://tracker.opentrackr.org:1337/announce'
p660
sS'last_error'
p661
(dp662
S'category'
p663
S'system'
p664
sS'value'
p665
I0
ssS'fail_limit'
p666
I0
sS'next_announce'
p667
NsS'complete_sent'
p668
I00
sS'scrape_downloaded'
p669
I-1
sS'trackerid'
p670
S''
sS'start_sent'
p671
I00
sS'tier'
p672
I3
sS'scrape_complete'
p673
I-1
sS'message'
p674
S''
sS'updating'
p675
I00
sa(dp676
S'send_stats'
p677
I01
sS'fails'
p678
I0
sS'verified'
p679
I00
sS'scrape_incomplete'
p680
I-1
sS'min_announce'
p681
NsS'source'
p682
I1
sS'url'
p683
S'udp://tracker.coppersurfer.tk:6969/announce'
p684
sS'last_error'
p685
(dp686
S'category'
p687
S'system'
p688
sS'value'
p689
I0
ssS'fail_limit'
p690
I0
sS'next_announce'
p691
NsS'complete_sent'
p692
I00
sS'scrape_downloaded'
p693
I-1
sS'trackerid'
p694
S''
sS'start_sent'
p695
I00
sS'tier'
p696
I4
sS'scrape_complete'
p697
I-1
sS'message'
p698
S''
sS'updating'
p699
I00
sa(dp700
S'send_stats'
p701
I01
sS'fails'
p702
I0
sS'verified'
p703
I00
sS'scrape_incomplete'
p704
I-1
sS'min_announce'
p705
NsS'source'
p706
I1
sS'url'
p707
S'udp://tracker.leechers-paradise.org:6969/announce'
p708
sS'last_error'
p709
(dp710
S'category'
p711
S'system'
p712
sS'value'
p713
I0
ssS'fail_limit'
p714
I0
sS'next_announce'
p715
NsS'complete_sent'
p716
I00
sS'scrape_downloaded'
p717
I-1
sS'trackerid'
p718
S''
sS'start_sent'
p719
I00
sS'tier'
p720
I5
sS'scrape_complete'
p721
I-1
sS'message'
p722
S''
sS'updating'
p723
I00
sasg56
Nsg57
I00
sg58
F2
sg59
I01
sba(ideluge.core.torrentmanager
TorrentState
p724
(dp725
g7
F-1
sg8
S'/home/defaultuser/Downloads'
p726
sg10
I01
sg11
I-1
sg12
I00
sg13
I-1
sg14
I00
sg15
I43
sg16
(lp727
I1
aI1
aI1
aI1
aI1
aI1
aI1
aI1
aI1
aI1
aI1
aI1
aI1
asg18
S'(80s, Electronic, Retrowave, Synthpop) [WEB] Mecha Maiko - Mad but Soft - 2018, FLAC (tracks), lossless [rutracker-5534681].torrent'
p728
sg20
F-1
sg21
S'/home/defaultuser/Music'
p729
sg23
F1521192163.2948999
sg24
I76113298
sg25
S'88de0b56b7bbf9a42e706d8aaab00d3c1ce6df59'
p730
sg27
I01
sg28
I00
sg29
I00
sg30
(lp731
(dp732
S'send_stats'
p733
I01
sS'fails'
p734
I0
sS'verified'
p735
I00
sS'scrape_incomplete'
p736
I-1
sS'min_announce'
p737
NsS'scrape_downloaded'
p738
I-1
sS'url'
p739
S'http://bt3.t-ru.org/ann'
p740
sS'last_error'
p741
(dp742
S'category'
p743
S'system'
p744
sS'value'
p745
I0
ssS'fail_limit'
p746
I0
sS'next_announce'
p747
NsS'complete_sent'
p748
I00
sS'source'
p749
I1
sS'trackerid'
p750
S''
sS'start_sent'
p751
I00
sS'tier'
p752
I0
sS'scrape_complete'
p753
I-1
sS'message'
p754
S''
sS'updating'
p755
I00
sa(dp756
S'send_stats'
p757
I01
sS'fails'
p758
I0
sS'verified'
p759
I00
sS'scrape_incomplete'
p760
I-1
sS'min_announce'
p761
NsS'scrape_downloaded'
p762
I-1
sS'url'
p763
S'http://retracker.local/announce'
p764
sS'last_error'
p765
(dp766
S'category'
p767
S'system'
p768
sS'value'
p769
I0
ssS'fail_limit'
p770
I0
sS'next_announce'
p771
NsS'complete_sent'
p772
I00
sS'source'
p773
I1
sS'trackerid'
p774
S''
sS'start_sent'
p775
I00
sS'tier'
p776
I1
sS'scrape_complete'
p777
I-1
sS'message'
p778
S''
sS'updating'
p779
I00
sasg56
Nsg57
I00
sg58
F2
sg59
I00
sba(ideluge.core.torrentmanager
TorrentState
p780
(dp781
g7
F-1
sg8
S'/home/defaultuser/Downloads'
p782
sg10
I01
sg11
I-1
sg12
I00
sg13
I-1
sg14
I00
sg15
I11
sg16
(lp783
I4
aI4
aI4
asg18
S'cc3645e29b1f4be60a5a6669f0d520353727e9a3'
p784
sg20
F-1
sg21
S'/home/win/e'
p785
sg23
F1523134223.809444
sg24
I58007012
sg25
S'cc3645e29b1f4be60a5a6669f0d520353727e9a3'
p786
sg27
I01
sg28
I00
sg29
I00
sg30
(lp787
(dp788
S'send_stats'
p789
I01
sS'fails'
p790
I0
sS'verified'
p791
I00
sS'scrape_incomplete'
p792
I-1
sS'min_announce'
p793
NsS'source'
p794
I4
sS'url'
p795
S'http://bt.t-ru.org/ann?magnet'
p796
sS'last_error'
p797
(dp798
S'category'
p799
S'system'
p800
sS'value'
p801
I0
ssS'fail_limit'
p802
I0
sS'next_announce'
p803
NsS'complete_sent'
p804
I00
sS'scrape_downloaded'
p805
I-1
sS'trackerid'
p806
S''
sS'start_sent'
p807
I00
sS'tier'
p808
I0
sS'scrape_complete'
p809
I-1
sS'message'
p810
S''
sS'updating'
p811
I00
sasg56
Nsg57
I00
sg58
F2
sg59
I01
sba(ideluge.core.torrentmanager
TorrentState
p812
(dp813
g7
F-1
sg8
S'/home/defaultuser/Downloads'
p814
sg10
I00
sg11
I-1
sg12
I00
sg13
I-1
sg14
I00
sg15
I12
sg16
(lp815
I0
aI0
aI0
aI0
aI0
aI0
aI0
aI0
aI0
aI0
aI0
aI1
aI0
aI0
aI0
aI0
aI0
aI0
aI0
aI0
aI0
aI0
aI0
aI0
aI0
aI0
aI0
aI0
aI0
aI0
aI0
aI0
aI0
aI0
aI0
aI0
aI0
aI0
aI0
aI0
aI0
aI0
aI0
aI0
aI0
aI0
aI0
aI0
aI0
aI0
aI0
aI0
aI0
aI0
aI0
aI0
aI0
aI0
aI0
aI0
aI0
aI0
aI0
aI0
aI0
aI0
aI0
aI1
aI1
aI1
aI1
aI1
aI1
aI1
aI1
aI1
aI1
aI1
aI1
aI1
aI1
aI1
aI1
aI1
aI1
aI1
aI1
aI1
aI1
aI1
aI1
aI1
aI1
aI1
aI1
aI1
aI1
aI1
aI1
aI1
aI1
aI1
aI1
aI1
aI1
aI1
aI0
aI0
aI0
aI0
aI0
aI0
aI0
aI0
aI0
aI0
aI0
aI0
aI0
aI0
aI0
aI0
aI0
aI0
aI0
aI0
aI0
aI0
aI0
aI0
aI0
aI0
aI0
aI0
aI0
aI0
aI0
aI0
aI0
aI0
aI0
aI0
aI0
aI0
aI0
aI0
aI0
aI0
aI0
aI0
aI0
aI0
aI0
aI0
aI0
aI0
aI0
aI0
aI0
aI0
aI0
aI0
aI0
aI0
aI0
aI0
aI0
aI0
aI0
aI0
aI0
aI0
aI0
aI0
aI0
aI0
aI0
aI0
aI0
aI0
aI0
aI0
aI0
aI0
aI0
aI0
aI0
aI0
aI0
aI0
aI0
aI0
aI0
aI0
aI0
aI0
aI0
aI0
aI0
aI0
aI0
aI0
aI0
aI0
aI0
aI0
aI0
aI0
aI0
aI0
aI0
aI0
aI0
aI0
aI0
aI0
aI0
aI0
aI0
aI0
aI0
aI0
aI0
aI0
aI0
aI0
aI0
aI0
aI0
aI0
aI0
aI0
aI0
aI0
aI0
aI0
aI0
aI0
aI0
aI0
aI0
aI0
aI0
aI0
aI0
aI0
aI0
aI1
aI1
aI1
aI1
aI1
aI1
aI1
aI1
aI1
aI1
aI1
aI1
aI1
aI1
aI1
aI1
aI1
aI1
aI1
aI1
aI1
aI1
aI1
aI1
aI1
aI0
aI0
aI0
aI0
aI0
aI0
aI0
aI0
aI0
aI0
aI0
aI0
aI0
aI0
aI0
aI0
aI0
aI0
aI0
aI0
aI0
aI0
aI0
aI0
aI0
aI0
aI0
aI0
aI0
aI0
aI0
aI0
aI0
aI0
aI0
aI0
aI0
aI0
aI0
aI0
aI0
aI0
aI0
aI0
aI0
aI0
aI0
aI0
aI0
aI0
aI0
aI0
aI0
aI0
aI0
aI0
aI0
aI0
aI0
aI0
aI0
aI0
aI0
aI0
aI0
aI0
aI0
aI0
aI0
aI0
aI0
aI0
aI0
aI0
aI0
aI0
aI0
aI0
aI0
aI0
aI0
aI0
aI0
aI0
aI0
aI0
aI0
aI0
aI0
aI0
aI0
aI0
aI0
aI0
aI0
aI0
aI0
aI0
aI0
aI0
aI0
aI0
aI0
aI0
aI0
aI0
aI0
aI0
aI0
aI0
aI0
aI0
aI0
aI0
aI0
aI0
aI0
aI0
aI0
aI0
aI0
aI0
aI0
aI0
aI0
aI0
aI0
aI0
aI0
aI0
aI0
aI0
aI0
aI0
aI0
aI0
aI0
aI0
aI0
aI0
aI0
aI0
aI0
aI0
aI0
aI0
aI0
aI0
aI0
aI0
aI0
aI0
aI0
aI0
aI0
aI0
aI0
aI0
aI0
aI0
aI0
aI0
aI0
aI0
aI0
aI0
aI0
aI0
aI0
aI0
aI0
aI0
asg18
S'(Psychedelic Psy-Trance Dubstep) [CD WEB] Infected Mushroom Discography Infected Mushroom \xd0\x94\xd0\xb8\xd1\x81\xd0\xba\xd0\xbe\xd0\xb3\xd1\x80\xd0\xb0\xd1\x84\xd0\xb8\xd1\x8f (13 Albums, 24 Singl [rutracker-5009242].torrent'
p816
sg20
F-1
sg21
S'/home/win/e/Music'
p817
sg23
F1522694191.4966159
sg24
I557056
sg25
S'bfbe1b9291198393a71c3cf99c83e30279faf518'
p818
sg27
I01
sg28
I00
sg29
I00
sg30
(lp819
(dp820
S'send_stats'
p821
I01
sS'fails'
p822
I0
sS'verified'
p823
I00
sS'scrape_incomplete'
p824
I-1
sS'min_announce'
p825
NsS'source'
p826
I1
sS'url'
p827
S'http://bt2.t-ru.org/ann'
p828
sS'last_error'
p829
(dp830
S'category'
p831
S'system'
p832
sS'value'
p833
I0
ssS'fail_limit'
p834
I0
sS'next_announce'
p835
NsS'complete_sent'
p836
I00
sS'scrape_downloaded'
p837
I-1
sS'trackerid'
p838
S''
sS'start_sent'
p839
I00
sS'tier'
p840
I0
sS'scrape_complete'
p841
I-1
sS'message'
p842
S''
sS'updating'
p843
I00
sa(dp844
S'send_stats'
p845
I01
sS'fails'
p846
I0
sS'verified'
p847
I00
sS'scrape_incomplete'
p848
I-1
sS'min_announce'
p849
NsS'source'
p850
I1
sS'url'
p851
S'http://retracker.local/announce'
p852
sS'last_error'
p853
(dp854
S'category'
p855
S'system'
p856
sS'value'
p857
I0
ssS'fail_limit'
p858
I0
sS'next_announce'
p859
NsS'complete_sent'
p860
I00
sS'scrape_downloaded'
p861
I-1
sS'trackerid'
p862
S''
sS'start_sent'
p863
I00
sS'tier'
p864
I1
sS'scrape_complete'
p865
I-1
sS'message'
p866
S''
sS'updating'
p867
I00
sasg56
Nsg57
I00
sg58
F2
sg59
I01
sba(ideluge.core.torrentmanager
TorrentState
p868
(dp869
g7
F-1
sg8
S'/home/defaultuser/Downloads'
p870
sg10
I01
sg11
I-1
sg12
I00
sg13
I-1
sg14
I00
sg15
I16
sg16
(lp871
I0
aI0
aI0
aI0
aI0
aI0
aI0
aI0
aI0
aI0
aI1
aI1
asg18
S'\xd0\x9a\xd0\xbe\xd0\xbd\xd1\x8c \xd0\x91\xd0\xbe\xd0\x94\xd0\xb6\xd0\xb5\xd0\xba BoJack Horseman \xd0\xa1\xd0\xb5\xd0\xb7\xd0\xbe\xd0\xbd 4 \xd0\xa1\xd0\xb5\xd1\x80\xd0\xb8\xd0\xb8 1-12 \xd0\xb8\xd0\xb7 12 (\xd0\xa0\xd0\xb0\xd1\x84\xd0\xb0\xd1\x8d\xd0\xbb\xd1\x8c \xd0\x91\xd0\xbe\xd0\xb1-\xd0\xa3\xd0\xbe\xd0\xba\xd1\x81\xd0\xb1\xd0\xb5\xd1\x80\xd0\xb3 Raphael Bob-Waksberg) [2017, \xd0\xb4\xd1\x80\xd0\xb0\xd0\xbc\xd0\xb0, \xd0\xba\xd0\xbe\xd0\xbc\xd0\xb5\xd0\xb4\xd0\xb8\xd1\x8f, [rutracker-5450987].torrent'
p872
sg20
F-1
sg21
S'/home/win/e'
p873
sg23
F1521473903.063812
sg24
I575214490
sg25
S'509b87759438ffa762fa4723104d25738f8362ec'
p874
sg27
I01
sg28
I00
sg29
I00
sg30
(lp875
(dp876
S'send_stats'
p877
I01
sS'fails'
p878
I0
sS'verified'
p879
I00
sS'scrape_incomplete'
p880
I-1
sS'min_announce'
p881
NsS'scrape_downloaded'
p882
I-1
sS'url'
p883
S'http://bt2.t-ru.org/ann'
p884
sS'last_error'
p885
(dp886
S'category'
p887
S'system'
p888
sS'value'
p889
I0
ssS'fail_limit'
p890
I0
sS'next_announce'
p891
NsS'complete_sent'
p892
I00
sS'source'
p893
I1
sS'trackerid'
p894
S''
sS'start_sent'
p895
I00
sS'tier'
p896
I0
sS'scrape_complete'
p897
I-1
sS'message'
p898
S''
sS'updating'
p899
I00
sa(dp900
S'send_stats'
p901
I01
sS'fails'
p902
I0
sS'verified'
p903
I00
sS'scrape_incomplete'
p904
I-1
sS'min_announce'
p905
NsS'scrape_downloaded'
p906
I-1
sS'url'
p907
S'http://retracker.local/announce'
p908
sS'last_error'
p909
(dp910
S'category'
p911
S'system'
p912
sS'value'
p913
I0
ssS'fail_limit'
p914
I0
sS'next_announce'
p915
NsS'complete_sent'
p916
I00
sS'source'
p917
I1
sS'trackerid'
p918
S''
sS'start_sent'
p919
I00
sS'tier'
p920
I1
sS'scrape_complete'
p921
I-1
sS'message'
p922
S''
sS'updating'
p923
I00
sasg56
Nsg57
I00
sg58
F2
sg59
I01
sba(ideluge.core.torrentmanager
TorrentState
p924
(dp925
g7
F-1
sg8
S'/home/defaultuser/Downloads'
p926
sg10
I01
sg11
I-1
sg12
I00
sg13
I-1
sg14
I00
sg15
I26
sg16
(lp927
I1
aI1
aI1
aI1
aI1
aI1
aI1
aI1
aI1
aI1
aI1
aI1
aI1
aI1
aI1
aI1
aI1
asg18
S"(80's, Synthwave, Dark Synth) [WEB] VHS Glitch - Evil Technology - 2014, FLAC (tracks), lossless [rutracker-4933233].torrent"
p928
sg20
F-1
sg21
S'/home/defaultuser/Music'
p929
sg23
F1521192114.6561329
sg24
I0
sg25
S'd01ebdde22727e7f13fdb825ddf5e3f2434d85b9'
p930
sg27
I01
sg28
I00
sg29
I00
sg30
(lp931
(dp932
S'send_stats'
p933
I01
sS'fails'
p934
I0
sS'verified'
p935
I00
sS'scrape_incomplete'
p936
I-1
sS'min_announce'
p937
NsS'source'
p938
I2
sS'url'
p939
S'http://bt.t-ru.org/ann'
p940
sS'last_error'
p941
(dp942
S'category'
p943
S'system'
p944
sS'value'
p945
I0
ssS'fail_limit'
p946
I0
sS'next_announce'
p947
NsS'complete_sent'
p948
I00
sS'scrape_downloaded'
p949
I-1
sS'trackerid'
p950
S''
sS'start_sent'
p951
I00
sS'tier'
p952
I0
sS'scrape_complete'
p953
I-1
sS'message'
p954
S''
sS'updating'
p955
I00
sa(dp956
S'send_stats'
p957
I01
sS'fails'
p958
I0
sS'verified'
p959
I00
sS'scrape_incomplete'
p960
I-1
sS'min_announce'
p961
NsS'source'
p962
I2
sS'url'
p963
S'http://retracker.local/announce'
p964
sS'last_error'
p965
(dp966
S'category'
p967
S'system'
p968
sS'value'
p969
I0
ssS'fail_limit'
p970
I0
sS'next_announce'
p971
NsS'complete_sent'
p972
I00
sS'scrape_downloaded'
p973
I-1
sS'trackerid'
p974
S''
sS'start_sent'
p975
I00
sS'tier'
p976
I1
sS'scrape_complete'
p977
I-1
sS'message'
p978
S''
sS'updating'
p979
I00
sasg56
Nsg57
I00
sg58
F2
sg59
I00
sba(ideluge.core.torrentmanager
TorrentState
p980
(dp981
g7
F-1
sg8
S'/home/defaultuser/Downloads'
p982
sg10
I00
sg11
I-1
sg12
I00
sg13
I-1
sg14
I00
sg15
I5
sg16
(lp983
I0
aI0
aI0
aI0
aI1
aI0
aI1
aI0
aI0
aI0
aI0
aI0
aI1
aI0
aI0
aI0
aI0
aI0
asg18
S'(Ambient, Downtempo, Gospel, Synth-pop, Trip Hop) [CD] Moby - Everything Was Beautiful, And Nothing Hurt - 2018, FLAC (tracks+.cue [rutracker-5528370].torrent'
p984
sg20
F-1
sg21
S'/home/win/e/Music'
p985
sg23
F1526398455.3298409
sg24
I0
sg25
S'bf1d6d31cd0900e1a1c5254754e3ff033f60154a'
p986
sg27
I01
sg28
I00
sg29
I00
sg30
(lp987
(dp988
S'send_stats'
p989
I01
sS'fails'
p990
I0
sS'verified'
p991
I00
sS'scrape_incomplete'
p992
I-1
sS'min_announce'
p993
NsS'scrape_downloaded'
p994
I-1
sS'url'
p995
S'http://bt2.t-ru.org/ann'
p996
sS'last_error'
p997
(dp998
S'category'
p999
S'system'
p1000
sS'value'
p1001
I0
ssS'fail_limit'
p1002
I0
sS'next_announce'
p1003
NsS'complete_sent'
p1004
I00
sS'source'
p1005
I1
sS'trackerid'
p1006
S''
sS'start_sent'
p1007
I00
sS'tier'
p1008
I0
sS'scrape_complete'
p1009
I-1
sS'message'
p1010
S''
sS'updating'
p1011
I00
sa(dp1012
S'send_stats'
p1013
I01
sS'fails'
p1014
I0
sS'verified'
p1015
I00
sS'scrape_incomplete'
p1016
I-1
sS'min_announce'
p1017
NsS'scrape_downloaded'
p1018
I-1
sS'url'
p1019
S'http://retracker.local/announce'
p1020
sS'last_error'
p1021
(dp1022
S'category'
p1023
S'system'
p1024
sS'value'
p1025
I0
ssS'fail_limit'
p1026
I0
sS'next_announce'
p1027
NsS'complete_sent'
p1028
I00
sS'source'
p1029
I1
sS'trackerid'
p1030
S''
sS'start_sent'
p1031
I00
sS'tier'
p1032
I1
sS'scrape_complete'
p1033
I-1
sS'message'
p1034
S''
sS'updating'
p1035
I00
sasg56
Nsg57
I00
sg58
F2
sg59
I01
sba(ideluge.core.torrentmanager
TorrentState
p1036
(dp1037
g7
F-1
sg8
S'/home/defaultuser/Downloads'
p1038
sg10
I01
sg11
I-1
sg12
I00
sg13
I-1
sg14
I00
sg15
I24
sg16
(lp1039
I0
aI0
aI0
aI0
aI0
aI0
aI0
aI0
aI0
aI0
aI0
aI0
aI0
aI0
aI0
aI0
aI0
aI0
aI0
aI0
aI0
aI0
aI0
aI0
aI0
aI0
aI0
aI0
aI0
aI0
aI0
aI0
aI0
aI0
aI0
aI0
aI0
aI0
aI0
aI0
aI0
aI0
aI0
aI0
aI0
aI0
aI0
aI0
aI0
aI0
aI0
aI0
aI0
aI0
aI0
aI0
aI0
aI0
aI0
aI0
aI0
aI0
aI0
aI0
aI0
aI0
aI0
aI0
aI0
aI0
aI0
aI0
aI0
aI0
aI0
aI0
aI0
aI0
aI0
aI0
aI0
aI0
aI0
aI0
aI1
aI1
aI1
aI1
aI1
aI1
aI1
aI1
aI1
aI1
aI1
aI1
aI1
aI0
aI0
aI0
aI0
aI0
aI0
aI0
aI0
aI0
aI0
aI0
aI0
aI0
aI0
aI0
aI0
aI0
aI0
aI0
aI0
aI0
aI0
aI0
aI0
aI0
aI0
aI0
aI0
aI0
aI0
aI0
aI0
aI0
aI0
aI0
aI0
aI0
aI0
aI0
aI0
aI0
aI0
aI0
asg18
S"(80's Synthwave Dark Synth New Retro Wave) [WEB] Perturbator - Discography (13 Releases) - 2012-2016, FLAC (tracks), lossless [rutracker-4766010].torrent"
p1040
sg20
F-1
sg21
S'/home/win/e/Music'
p1041
sg23
F1520528830.4786141
sg24
I0
sg25
S'e4bec5ba184bfaa563ad494a61ad8e8cef40d662'
p1042
sg27
I01
sg28
I00
sg29
I00
sg30
(lp1043
(dp1044
S'send_stats'
p1045
I01
sS'fails'
p1046
I0
sS'verified'
p1047
I00
sS'scrape_incomplete'
p1048
I-1
sS'min_announce'
p1049
NsS'source'
p1050
I2
sS'url'
p1051
S'http://bt3.t-ru.org/ann'
p1052
sS'last_error'
p1053
(dp1054
S'category'
p1055
S'system'
p1056
sS'value'
p1057
I0
ssS'fail_limit'
p1058
I0
sS'next_announce'
p1059
NsS'complete_sent'
p1060
I00
sS'scrape_downloaded'
p1061
I-1
sS'trackerid'
p1062
S''
sS'start_sent'
p1063
I00
sS'tier'
p1064
I0
sS'scrape_complete'
p1065
I-1
sS'message'
p1066
S''
sS'updating'
p1067
I00
sa(dp1068
S'send_stats'
p1069
I01
sS'fails'
p1070
I0
sS'verified'
p1071
I00
sS'scrape_incomplete'
p1072
I-1
sS'min_announce'
p1073
NsS'source'
p1074
I2
sS'url'
p1075
S'http://retracker.local/announce'
p1076
sS'last_error'
p1077
(dp1078
S'category'
p1079
S'system'
p1080
sS'value'
p1081
I0
ssS'fail_limit'
p1082
I0
sS'next_announce'
p1083
NsS'complete_sent'
p1084
I00
sS'scrape_downloaded'
p1085
I-1
sS'trackerid'
p1086
S''
sS'start_sent'
p1087
I00
sS'tier'
p1088
I1
sS'scrape_complete'
p1089
I-1
sS'message'
p1090
S''
sS'updating'
p1091
I00
sasg56
Nsg57
I00
sg58
F2
sg59
I01
sba(ideluge.core.torrentmanager
TorrentState
p1092
(dp1093
g7
F-1
sg8
S'/home/defaultuser/Downloads'
p1094
sg10
I01
sg11
I-1
sg12
I00
sg13
I-1
sg14
I00
sg15
I53
sg16
(lp1095
I1
aI1
aI1
aI1
aI1
aI1
aI1
aI1
aI1
aI1
aI1
aI1
aI1
asg18
S'22bdac8eace7045827a3f28b6e0241e039613eba'
p1096
sg20
F-1
sg21
S'/home/defaultuser/Music'
p1097
sg23
F1521143970.937206
sg24
I0
sg25
S'22bdac8eace7045827a3f28b6e0241e039613eba'
p1098
sg27
I01
sg28
I00
sg29
I00
sg30
(lp1099
(dp1100
S'send_stats'
p1101
I01
sS'fails'
p1102
I0
sS'verified'
p1103
I00
sS'scrape_incomplete'
p1104
I-1
sS'min_announce'
p1105
NsS'source'
p1106
I2
sS'url'
p1107
S'http://bt2.t-ru.org/ann?magnet'
p1108
sS'last_error'
p1109
(dp1110
S'category'
p1111
S'system'
p1112
sS'value'
p1113
I0
ssS'fail_limit'
p1114
I0
sS'next_announce'
p1115
NsS'complete_sent'
p1116
I00
sS'scrape_downloaded'
p1117
I-1
sS'trackerid'
p1118
S''
sS'start_sent'
p1119
I00
sS'tier'
p1120
I0
sS'scrape_complete'
p1121
I-1
sS'message'
p1122
S''
sS'updating'
p1123
I00
sasg56
Nsg57
I00
sg58
F2
sg59
I00
sba(ideluge.core.torrentmanager
TorrentState
p1124
(dp1125
g7
F-1
sg8
S'/home/defaultuser/Downloads'
p1126
sg10
I01
sg11
I-1
sg12
I00
sg13
I-1
sg14
I00
sg15
I38
sg16
(lp1127
I4
aI4
aI4
aI4
aI4
aI4
aI4
aI4
aI4
aI4
asg18
S'97ef5dbe32c47b96219932e9e3a8cfc218846e31'
p1128
sg20
F-1
sg21
S'/home/win/e'
p1129
sg23
F1520272812.7626929
sg24
I116601588
sg25
S'97ef5dbe32c47b96219932e9e3a8cfc218846e31'
p1130
sg27
I01
sg28
I00
sg29
I00
sg30
(lp1131
(dp1132
S'send_stats'
p1133
I01
sS'fails'
p1134
I0
sS'verified'
p1135
I00
sS'scrape_incomplete'
p1136
I-1
sS'min_announce'
p1137
NsS'scrape_downloaded'
p1138
I-1
sS'url'
p1139
S'http://bt3.t-ru.org/ann?magnet'
p1140
sS'last_error'
p1141
(dp1142
S'category'
p1143
S'system'
p1144
sS'value'
p1145
I0
ssS'fail_limit'
p1146
I0
sS'next_announce'
p1147
NsS'complete_sent'
p1148
I00
sS'source'
p1149
I4
sS'trackerid'
p1150
S''
sS'start_sent'
p1151
I00
sS'tier'
p1152
I0
sS'scrape_complete'
p1153
I-1
sS'message'
p1154
S''
sS'updating'
p1155
I00
sasg56
Nsg57
I00
sg58
F2
sg59
I01
sba(ideluge.core.torrentmanager
TorrentState
p1156
(dp1157
g7
F-1
sg8
S'/home/defaultuser/Downloads'
p1158
sg10
I01
sg11
I-1
sg12
I00
sg13
I-1
sg14
I00
sg15
I17
sg16
(lp1159
I0
aI1
aI1
aI1
aI1
aI1
aI1
aI1
aI1
aI1
aI1
aI1
asg18
S'\xd0\x9a\xd0\xbe\xd0\xbd\xd1\x8c \xd0\x91\xd0\xbe\xd0\x94\xd0\xb6\xd0\xb5\xd0\xba BoJack Horseman \xd0\xa1\xd0\xb5\xd0\xb7\xd0\xbe\xd0\xbd 1 \xd0\xa1\xd0\xb5\xd1\x80\xd0\xb8\xd0\xb8 1-12 \xd0\xb8\xd0\xb7 12 (\xd0\xa0\xd0\xb0\xd1\x84\xd0\xb0\xd1\x8d\xd0\xbb\xd1\x8c \xd0\x91\xd0\xbe\xd0\xb1-\xd0\xa3\xd0\xbe\xd0\xba\xd1\x81\xd0\xb1\xd0\xb5\xd1\x80\xd0\xb3 Raphael Bob-Waksberg) [2014, \xd0\xb4\xd1\x80\xd0\xb0\xd0\xbc\xd0\xb0, \xd0\xba\xd0\xbe\xd0\xbc\xd0\xb5\xd0\xb4\xd0\xb8\xd1\x8f, [rutracker-5425387].torrent'
p1160
sg20
F-1
sg21
S'/home/win/e'
p1161
sg23
F1521200362.064971
sg24
I533352321
sg25
S'4af1c114196098431a2c7e71b4a08b9e968ce8d8'
p1162
sg27
I01
sg28
I00
sg29
I00
sg30
(lp1163
(dp1164
S'send_stats'
p1165
I01
sS'fails'
p1166
I0
sS'verified'
p1167
I00
sS'scrape_incomplete'
p1168
I-1
sS'min_announce'
p1169
NsS'scrape_downloaded'
p1170
I-1
sS'url'
p1171
S'http://bt4.t-ru.org/ann'
p1172
sS'last_error'
p1173
(dp1174
S'category'
p1175
S'system'
p1176
sS'value'
p1177
I0
ssS'fail_limit'
p1178
I0
sS'next_announce'
p1179
NsS'complete_sent'
p1180
I00
sS'source'
p1181
I1
sS'trackerid'
p1182
S''
sS'start_sent'
p1183
I00
sS'tier'
p1184
I0
sS'scrape_complete'
p1185
I-1
sS'message'
p1186
S''
sS'updating'
p1187
I00
sa(dp1188
S'send_stats'
p1189
I01
sS'fails'
p1190
I0
sS'verified'
p1191
I00
sS'scrape_incomplete'
p1192
I-1
sS'min_announce'
p1193
NsS'scrape_downloaded'
p1194
I-1
sS'url'
p1195
S'http://retracker.local/announce'
p1196
sS'last_error'
p1197
(dp1198
S'category'
p1199
S'system'
p1200
sS'value'
p1201
I0
ssS'fail_limit'
p1202
I0
sS'next_announce'
p1203
NsS'complete_sent'
p1204
I00
sS'source'
p1205
I1
sS'trackerid'
p1206
S''
sS'start_sent'
p1207
I00
sS'tier'
p1208
I1
sS'scrape_complete'
p1209
I-1
sS'message'
p1210
S''
sS'updating'
p1211
I00
sasg56
Nsg57
I00
sg58
F2
sg59
I01
sba(ideluge.core.torrentmanager
TorrentState
p1212
(dp1213
g7
F-1
sg8
S'/home/defaultuser/Downloads'
p1214
sg10
I01
sg11
I-1
sg12
I00
sg13
I-1
sg14
I00
sg15
I54
sg16
(lp1215
I1
asg18
S'\xd0\x91\xd0\xb5\xd0\xb7\xd1\x83\xd0\xbc\xd0\xbd\xd1\x8b\xd0\xb9 \xd0\x9c\xd0\xb0\xd0\xba\xd1\x81 \xd0\x94\xd0\xbe\xd1\x80\xd0\xbe\xd0\xb3\xd0\xb0 \xd1\x8f\xd1\x80\xd0\xbe\xd1\x81\xd1\x82\xd0\xb8 Mad Max Fury Road (\xd0\x94\xd0\xb6\xd0\xbe\xd1\x80\xd0\xb4\xd0\xb6 \xd0\x9c\xd0\xb8\xd0\xbb\xd0\xbb\xd0\xb5\xd1\x80 George Miller) [2015, \xd0\x90\xd0\xb2\xd1\x81\xd1\x82\xd1\x80\xd0\xb0\xd0\xbb\xd0\xb8\xd1\x8f, \xd0\xa1\xd0\xa8\xd0\x90, \xd1\x84\xd0\xb0\xd0\xbd\xd1\x82\xd0\xb0\xd1\x81\xd1\x82\xd0\xb8\xd0\xba\xd0\xb0, \xd0\xb1\xd0\xbe\xd0\xb5\xd0\xb2\xd0\xb8\xd0\xba, \xd1\x82\xd1\x80\xd0\xb8\xd0\xbb\xd0\xbb [rutracker-5060612].torrent'
p1216
sg20
F-1
sg21
S'/home/win/e/Music'
p1217
sg23
F1526414323.5562789
sg24
I1218800719
sg25
S'11f8e8a2f36d017035fbd33796907b3ad47f4f1d'
p1218
sg27
I01
sg28
I00
sg29
I00
sg30
(lp1219
(dp1220
S'send_stats'
p1221
I01
sS'fails'
p1222
I0
sS'verified'
p1223
I00
sS'scrape_incomplete'
p1224
I-1
sS'min_announce'
p1225
NsS'scrape_downloaded'
p1226
I-1
sS'url'
p1227
S'http://bt2.t-ru.org/ann'
p1228
sS'last_error'
p1229
(dp1230
S'category'
p1231
S'system'
p1232
sS'value'
p1233
I0
ssS'fail_limit'
p1234
I0
sS'next_announce'
p1235
NsS'complete_sent'
p1236
I00
sS'source'
p1237
I1
sS'trackerid'
p1238
S''
sS'start_sent'
p1239
I00
sS'tier'
p1240
I0
sS'scrape_complete'
p1241
I-1
sS'message'
p1242
S''
sS'updating'
p1243
I00
sa(dp1244
S'send_stats'
p1245
I01
sS'fails'
p1246
I0
sS'verified'
p1247
I00
sS'scrape_incomplete'
p1248
I-1
sS'min_announce'
p1249
NsS'scrape_downloaded'
p1250
I-1
sS'url'
p1251
S'http://retracker.local/announce'
p1252
sS'last_error'
p1253
(dp1254
S'category'
p1255
S'system'
p1256
sS'value'
p1257
I0
ssS'fail_limit'
p1258
I0
sS'next_announce'
p1259
NsS'complete_sent'
p1260
I00
sS'source'
p1261
I1
sS'trackerid'
p1262
S''
sS'start_sent'
p1263
I00
sS'tier'
p1264
I1
sS'scrape_complete'
p1265
I-1
sS'message'
p1266
S''
sS'updating'
p1267
I00
sasg56
Nsg57
I00
sg58
F2
sg59
I00
sba(ideluge.core.torrentmanager
TorrentState
p1268
(dp1269
g7
F-1
sg8
S'/home/defaultuser/Downloads'
p1270
sg10
I00
sg11
I-1
sg12
I00
sg13
I-1
sg14
I00
sg15
I-1
sg16
(lp1271
I1
aI1
aI1
aI1
aI1
aI1
aI1
aI1
aI1
aI1
aI1
aI1
aI1
aI1
aI1
aI1
aI1
aI1
aI1
aI1
aI1
aI1
aI1
aI0
aI1
aI1
aI1
asg18
S'ed749f04d6a012e9e908cba5227a2cb6433bd4bd'
p1272
sg20
F-1
sg21
S'/home/win/e'
p1273
sg23
F1530305846.877939
sg24
I1372477052
sg25
S'ed749f04d6a012e9e908cba5227a2cb6433bd4bd'
p1274
sg27
I01
sg28
I00
sg29
I00
sg30
(lp1275
(dp1276
S'send_stats'
p1277
I01
sS'fails'
p1278
I0
sS'verified'
p1279
I00
sS'scrape_incomplete'
p1280
I-1
sS'min_announce'
p1281
NsS'source'
p1282
I4
sS'url'
p1283
S'http://nyaa.tracker.wf:7777/announce'
p1284
sS'last_error'
p1285
(dp1286
S'category'
p1287
S'system'
p1288
sS'value'
p1289
I0
ssS'fail_limit'
p1290
I0
sS'next_announce'
p1291
NsS'complete_sent'
p1292
I00
sS'scrape_downloaded'
p1293
I-1
sS'trackerid'
p1294
S''
sS'start_sent'
p1295
I00
sS'tier'
p1296
I0
sS'scrape_complete'
p1297
I-1
sS'message'
p1298
S''
sS'updating'
p1299
I00
sa(dp1300
S'send_stats'
p1301
I01
sS'fails'
p1302
I0
sS'verified'
p1303
I00
sS'scrape_incomplete'
p1304
I-1
sS'min_announce'
p1305
NsS'source'
p1306
I4
sS'url'
p1307
S'udp://open.stealth.si:80/announce'
p1308
sS'last_error'
p1309
(dp1310
S'category'
p1311
S'system'
p1312
sS'value'
p1313
I0
ssS'fail_limit'
p1314
I0
sS'next_announce'
p1315
NsS'complete_sent'
p1316
I00
sS'scrape_downloaded'
p1317
I-1
sS'trackerid'
p1318
S''
sS'start_sent'
p1319
I00
sS'tier'
p1320
I1
sS'scrape_complete'
p1321
I-1
sS'message'
p1322
S''
sS'updating'
p1323
I00
sa(dp1324
S'send_stats'
p1325
I01
sS'fails'
p1326
I0
sS'verified'
p1327
I00
sS'scrape_incomplete'
p1328
I-1
sS'min_announce'
p1329
NsS'source'
p1330
I4
sS'url'
p1331
S'udp://tracker.opentrackr.org:1337/announce'
p1332
sS'last_error'
p1333
(dp1334
S'category'
p1335
S'system'
p1336
sS'value'
p1337
I0
ssS'fail_limit'
p1338
I0
sS'next_announce'
p1339
NsS'complete_sent'
p1340
I00
sS'scrape_downloaded'
p1341
I-1
sS'trackerid'
p1342
S''
sS'start_sent'
p1343
I00
sS'tier'
p1344
I2
sS'scrape_complete'
p1345
I-1
sS'message'
p1346
S''
sS'updating'
p1347
I00
sa(dp1348
S'send_stats'
p1349
I01
sS'fails'
p1350
I0
sS'verified'
p1351
I00
sS'scrape_incomplete'
p1352
I-1
sS'min_announce'
p1353
NsS'source'
p1354
I4
sS'url'
p1355
S'udp://tracker.coppersurfer.tk:6969/announce'
p1356
sS'last_error'
p1357
(dp1358
S'category'
p1359
S'system'
p1360
sS'value'
p1361
I0
ssS'fail_limit'
p1362
I0
sS'next_announce'
p1363
NsS'complete_sent'
p1364
I00
sS'scrape_downloaded'
p1365
I-1
sS'trackerid'
p1366
S''
sS'start_sent'
p1367
I00
sS'tier'
p1368
I3
sS'scrape_complete'
p1369
I-1
sS'message'
p1370
S''
sS'updating'
p1371
I00
sa(dp1372
S'send_stats'
p1373
I01
sS'fails'
p1374
I0
sS'verified'
p1375
I00
sS'scrape_incomplete'
p1376
I-1
sS'min_announce'
p1377
NsS'source'
p1378
I4
sS'url'
p1379
S'udp://tracker.leechers-paradise.org:6969/announce'
p1380
sS'last_error'
p1381
(dp1382
S'category'
p1383
S'system'
p1384
sS'value'
p1385
I0
ssS'fail_limit'
p1386
I0
sS'next_announce'
p1387
NsS'complete_sent'
p1388
I00
sS'scrape_downloaded'
p1389
I-1
sS'trackerid'
p1390
S''
sS'start_sent'
p1391
I00
sS'tier'
p1392
I4
sS'scrape_complete'
p1393
I-1
sS'message'
p1394
S''
sS'updating'
p1395
I00
sasg56
Nsg57
I00
sg58
F2
sg59
I01
sba(ideluge.core.torrentmanager
TorrentState
p1396
(dp1397
g7
F-1
sg8
S'/home/defaultuser/Downloads'
p1398
sg10
I01
sg11
I-1
sg12
I00
sg13
I-1
sg14
I00
sg15
I23
sg16
(lp1399
I1
aI1
aI1
aI1
aI1
aI1
aI1
aI1
aI1
aI1
aI1
aI1
asg18
S'\xd0\x9a\xd0\xbe\xd0\xbd\xd1\x8c \xd0\x91\xd0\xbe\xd0\x94\xd0\xb6\xd0\xb5\xd0\xba BoJack Horseman \xd0\xa1\xd0\xb5\xd0\xb7\xd0\xbe\xd0\xbd 3 \xd0\xa1\xd0\xb5\xd1\x80\xd0\xb8\xd0\xb8 1-12 \xd0\xb8\xd0\xb7 12 (\xd0\xa0\xd0\xb0\xd1\x84\xd0\xb0\xd1\x8d\xd0\xbb\xd1\x8c \xd0\x91\xd0\xbe\xd0\xb1-\xd0\xa3\xd0\xbe\xd0\xba\xd1\x81\xd0\xb1\xd0\xb5\xd1\x80\xd0\xb3 Raphael Bob-Waksberg) [2016, \xd0\xb4\xd1\x80\xd0\xb0\xd0\xbc\xd0\xb0, \xd0\xba\xd0\xbe\xd0\xbc\xd0\xb5\xd0\xb4\xd0\xb8\xd1\x8f, [rutracker-5425396]-1.torrent'
p1400
sg20
F-1
sg21
S'/home/win/e'
p1401
sg23
F1521307688.6315451
sg24
I341587353
sg25
S'70a28001b307d70e71d999f314b663610e566e48'
p1402
sg27
I01
sg28
I00
sg29
I00
sg30
(lp1403
(dp1404
S'send_stats'
p1405
I01
sS'fails'
p1406
I0
sS'verified'
p1407
I00
sS'scrape_incomplete'
p1408
I-1
sS'min_announce'
p1409
NsS'source'
p1410
I1
sS'url'
p1411
S'http://bt.t-ru.org/ann'
p1412
sS'last_error'
p1413
(dp1414
S'category'
p1415
S'system'
p1416
sS'value'
p1417
I0
ssS'fail_limit'
p1418
I0
sS'next_announce'
p1419
NsS'complete_sent'
p1420
I00
sS'scrape_downloaded'
p1421
I-1
sS'trackerid'
p1422
S''
sS'start_sent'
p1423
I00
sS'tier'
p1424
I0
sS'scrape_complete'
p1425
I-1
sS'message'
p1426
S''
sS'updating'
p1427
I00
sa(dp1428
S'send_stats'
p1429
I01
sS'fails'
p1430
I0
sS'verified'
p1431
I00
sS'scrape_incomplete'
p1432
I-1
sS'min_announce'
p1433
NsS'source'
p1434
I1
sS'url'
p1435
S'http://retracker.local/announce'
p1436
sS'last_error'
p1437
(dp1438
S'category'
p1439
S'system'
p1440
sS'value'
p1441
I0
ssS'fail_limit'
p1442
I0
sS'next_announce'
p1443
NsS'complete_sent'
p1444
I00
sS'scrape_downloaded'
p1445
I-1
sS'trackerid'
p1446
S''
sS'start_sent'
p1447
I00
sS'tier'
p1448
I1
sS'scrape_complete'
p1449
I-1
sS'message'
p1450
S''
sS'updating'
p1451
I00
sasg56
Nsg57
I00
sg58
F2
sg59
I01
sba(ideluge.core.torrentmanager
TorrentState
p1452
(dp1453
g7
F-1
sg8
S'/home/defaultuser/Downloads'
p1454
sg10
I01
sg11
I-1
sg12
I00
sg13
I-1
sg14
I00
sg15
I2
sg16
(lp1455
I0
aI0
aI0
aI0
aI0
aI0
aI0
aI0
aI0
aI0
aI0
aI0
aI0
aI0
aI1
aI1
aI1
aI1
aI0
aI1
aI1
aI0
aI0
aI0
aI0
aI0
asg18
S'\xd0\x90\xd0\xbc\xd0\xb5\xd1\x80\xd0\xb8\xd0\xba\xd0\xb0\xd0\xbd\xd1\x86\xd1\x8b The Americans \xd0\xa1\xd0\xb5\xd0\xb7\xd0\xbe\xd0\xbd 1 \xd0\xa1\xd0\xb5\xd1\x80\xd0\xb8\xd0\xb8 1-13 (13) (\xd0\x90\xd0\xb4\xd0\xb0\xd0\xbc \xd0\x90\xd1\x80\xd0\xba\xd0\xb8\xd0\xbd, \xd0\x93\xd1\x8d\xd0\xb2\xd0\xb8\xd0\xbd \xd0\x9e\xe2\x80\x99\xd0\x9a\xd0\xbe\xd0\xbd\xd0\xbd\xd0\xbe\xd1\x80) [2013, \xd0\xa1\xd0\xa8\xd0\x90, \xd0\xba\xd1\x80\xd0\xb8\xd0\xbc\xd0\xb8\xd0\xbd\xd0\xb0\xd0\xbb, \xd0\xb4\xd1\x80\xd0\xb0\xd0\xbc\xd0\xb0, WEB-DL 1080p] M [rutracker-4389666].torrent'
p1456
sg20
F-1
sg21
S'/home/win/e'
p1457
sg23
F1527708940.792361
sg24
I452627407
sg25
S'8f0dcb88946b0dae98492b3b39df45ecd1889c4a'
p1458
sg27
I01
sg28
I00
sg29
I00
sg30
(lp1459
(dp1460
S'send_stats'
p1461
I01
sS'fails'
p1462
I0
sS'verified'
p1463
I00
sS'scrape_incomplete'
p1464
I-1
sS'min_announce'
p1465
NsS'source'
p1466
I1
sS'url'
p1467
S'http://bt3.t-ru.org/ann'
p1468
sS'last_error'
p1469
(dp1470
S'category'
p1471
S'system'
p1472
sS'value'
p1473
I0
ssS'fail_limit'
p1474
I0
sS'next_announce'
p1475
NsS'complete_sent'
p1476
I00
sS'scrape_downloaded'
p1477
I-1
sS'trackerid'
p1478
S''
sS'start_sent'
p1479
I00
sS'tier'
p1480
I0
sS'scrape_complete'
p1481
I-1
sS'message'
p1482
S''
sS'updating'
p1483
I00
sa(dp1484
S'send_stats'
p1485
I01
sS'fails'
p1486
I0
sS'verified'
p1487
I00
sS'scrape_incomplete'
p1488
I-1
sS'min_announce'
p1489
NsS'source'
p1490
I1
sS'url'
p1491
S'http://retracker.local/announce'
p1492
sS'last_error'
p1493
(dp1494
S'category'
p1495
S'system'
p1496
sS'value'
p1497
I0
ssS'fail_limit'
p1498
I0
sS'next_announce'
p1499
NsS'complete_sent'
p1500
I00
sS'scrape_downloaded'
p1501
I-1
sS'trackerid'
p1502
S''
sS'start_sent'
p1503
I00
sS'tier'
p1504
I1
sS'scrape_complete'
p1505
I-1
sS'message'
p1506
S''
sS'updating'
p1507
I00
sasg56
Nsg57
I00
sg58
F2
sg59
I01
sba(ideluge.core.torrentmanager
TorrentState
p1508
(dp1509
g7
F-1
sg8
S'/home/defaultuser/Downloads'
p1510
sg10
I00
sg11
I-1
sg12
I00
sg13
I-1
sg14
I00
sg15
I-1
sg16
(lp1511
I1
aI1
aI1
aI1
aI1
aI1
aI1
aI1
aI1
aI1
aI1
aI1
aI1
aI1
aI1
aI1
aI1
aI1
aI1
aI1
aI1
aI1
aI1
aI1
aI1
aI1
aI1
aI1
aI1
aI1
aI1
aI1
aI1
aI1
aI1
aI1
aI1
aI1
aI1
aI1
aI1
aI1
aI1
aI1
aI1
aI1
aI1
aI1
aI1
aI1
aI1
aI1
aI1
aI1
aI1
aI1
aI1
aI1
aI1
aI1
aI1
aI1
aI1
aI1
aI1
aI1
aI1
aI1
aI1
aI1
aI1
aI1
aI1
aI1
aI1
aI1
aI1
aI1
aI1
aI1
aI1
aI1
aI1
aI1
aI1
aI1
aI1
aI1
aI1
aI1
aI1
aI1
aI1
aI1
aI1
aI1
aI1
aI1
aI1
aI1
aI1
aI1
aI1
aI1
aI1
aI1
aI1
aI1
aI1
aI1
aI1
aI1
aI1
aI1
aI1
aI1
aI1
aI1
aI1
aI1
aI1
aI1
aI1
aI1
aI1
aI1
aI1
aI1
aI1
aI1
aI1
aI1
aI1
aI1
aI1
aI1
aI1
aI1
aI1
aI1
aI1
aI1
aI1
aI1
aI1
aI1
aI1
aI1
aI1
aI1
aI1
aI1
aI1
aI1
aI1
aI1
aI1
aI1
aI1
aI1
aI1
aI1
aI1
aI1
aI1
aI1
aI1
aI1
aI1
aI1
aI1
aI1
aI1
aI1
aI1
aI1
aI1
aI1
aI1
aI1
aI1
aI1
aI1
aI1
aI1
aI1
aI1
aI1
aI1
aI1
aI1
aI1
aI1
aI1
aI1
aI1
aI1
aI1
aI1
aI1
aI1
aI1
asg18
S'[\xd0\x92 \xd1\x80\xd0\xb0\xd0\xb7\xd1\x80\xd0\xb0\xd0\xb1\xd0\xbe\xd1\x82\xd0\xba\xd0\xb5] Slay the Spire [P] [RUS + ENG + 9] (2017) (28.06.2018) [Portable] [rutracker-5556006].torrent'
p1512
sg20
F-1
sg21
S'/home/win/e'
p1513
sg23
F1530385114.8015649
sg24
I31203551
sg25
S'5c90396c6aa0e5200f4cda95412a67ce33f1b0f0'
p1514
sg27
I01
sg28
I00
sg29
I00
sg30
(lp1515
(dp1516
S'send_stats'
p1517
I01
sS'fails'
p1518
I0
sS'verified'
p1519
I00
sS'scrape_incomplete'
p1520
I-1
sS'min_announce'
p1521
NsS'source'
p1522
I1
sS'url'
p1523
S'http://bt4.t-ru.org/ann'
p1524
sS'last_error'
p1525
(dp1526
S'category'
p1527
S'system'
p1528
sS'value'
p1529
I0
ssS'fail_limit'
p1530
I0
sS'next_announce'
p1531
NsS'complete_sent'
p1532
I00
sS'scrape_downloaded'
p1533
I-1
sS'trackerid'
p1534
S''
sS'start_sent'
p1535
I00
sS'tier'
p1536
I0
sS'scrape_complete'
p1537
I-1
sS'message'
p1538
S''
sS'updating'
p1539
I00
sa(dp1540
S'send_stats'
p1541
I01
sS'fails'
p1542
I0
sS'verified'
p1543
I00
sS'scrape_incomplete'
p1544
I-1
sS'min_announce'
p1545
NsS'source'
p1546
I1
sS'url'
p1547
S'http://retracker.local/announce'
p1548
sS'last_error'
p1549
(dp1550
S'category'
p1551
S'system'
p1552
sS'value'
p1553
I0
ssS'fail_limit'
p1554
I0
sS'next_announce'
p1555
NsS'complete_sent'
p1556
I00
sS'scrape_downloaded'
p1557
I-1
sS'trackerid'
p1558
S''
sS'start_sent'
p1559
I00
sS'tier'
p1560
I1
sS'scrape_complete'
p1561
I-1
sS'message'
p1562
S''
sS'updating'
p1563
I00
sasg56
Nsg57
I00
sg58
F2
sg59
I01
sba(ideluge.core.torrentmanager
TorrentState
p1564
(dp1565
g7
F-1
sg8
S'/home/defaultuser/Downloads'
p1566
sg10
I01
sg11
I-1
sg12
I00
sg13
I-1
sg14
I00
sg15
I18
sg16
(lp1567
I4
asg18
S'763c52539294a3fa86cfb83848ca0b88c35e3933'
p1568
sg20
F-1
sg21
S'/home/win/e'
p1569
sg23
F1521474588.5948181
sg24
I8597210
sg25
S'763c52539294a3fa86cfb83848ca0b88c35e3933'
p1570
sg27
I01
sg28
I00
sg29
I00
sg30
(lp1571
(dp1572
S'send_stats'
p1573
I01
sS'fails'
p1574
I0
sS'verified'
p1575
I00
sS'scrape_incomplete'
p1576
I-1
sS'min_announce'
p1577
NsS'scrape_downloaded'
p1578
I-1
sS'url'
p1579
S'udp://tracker.opentrackr.org:1337/announce'
p1580
sS'last_error'
p1581
(dp1582
S'category'
p1583
S'system'
p1584
sS'value'
p1585
I0
ssS'fail_limit'
p1586
I0
sS'next_announce'
p1587
NsS'complete_sent'
p1588
I00
sS'source'
p1589
I4
sS'trackerid'
p1590
S''
sS'start_sent'
p1591
I00
sS'tier'
p1592
I0
sS'scrape_complete'
p1593
I-1
sS'message'
p1594
S''
sS'updating'
p1595
I00
sa(dp1596
S'send_stats'
p1597
I01
sS'fails'
p1598
I0
sS'verified'
p1599
I00
sS'scrape_incomplete'
p1600
I-1
sS'min_announce'
p1601
NsS'scrape_downloaded'
p1602
I-1
sS'url'
p1603
S'udp://tracker.leechers-paradise.org:6969/announce'
p1604
sS'last_error'
p1605
(dp1606
S'category'
p1607
S'system'
p1608
sS'value'
p1609
I0
ssS'fail_limit'
p1610
I0
sS'next_announce'
p1611
NsS'complete_sent'
p1612
I00
sS'source'
p1613
I4
sS'trackerid'
p1614
S''
sS'start_sent'
p1615
I00
sS'tier'
p1616
I1
sS'scrape_complete'
p1617
I-1
sS'message'
p1618
S''
sS'updating'
p1619
I00
sa(dp1620
S'send_stats'
p1621
I01
sS'fails'
p1622
I0
sS'verified'
p1623
I00
sS'scrape_incomplete'
p1624
I-1
sS'min_announce'
p1625
NsS'scrape_downloaded'
p1626
I-1
sS'url'
p1627
S'udp://tracker.coppersurfer.tk:6969/announce'
p1628
sS'last_error'
p1629
(dp1630
S'category'
p1631
S'system'
p1632
sS'value'
p1633
I0
ssS'fail_limit'
p1634
I0
sS'next_announce'
p1635
NsS'complete_sent'
p1636
I00
sS'source'
p1637
I4
sS'trackerid'
p1638
S''
sS'start_sent'
p1639
I00
sS'tier'
p1640
I2
sS'scrape_complete'
p1641
I-1
sS'message'
p1642
S''
sS'updating'
p1643
I00
sa(dp1644
S'send_stats'
p1645
I01
sS'fails'
p1646
I0
sS'verified'
p1647
I00
sS'scrape_incomplete'
p1648
I-1
sS'min_announce'
p1649
NsS'scrape_downloaded'
p1650
I-1
sS'url'
p1651
S'udp://p4p.arenabg.ch:1337/announce'
p1652
sS'last_error'
p1653
(dp1654
S'category'
p1655
S'system'
p1656
sS'value'
p1657
I0
ssS'fail_limit'
p1658
I0
sS'next_announce'
p1659
NsS'complete_sent'
p1660
I00
sS'source'
p1661
I4
sS'trackerid'
p1662
S''
sS'start_sent'
p1663
I00
sS'tier'
p1664
I3
sS'scrape_complete'
p1665
I-1
sS'message'
p1666
S''
sS'updating'
p1667
I00
sa(dp1668
S'send_stats'
p1669
I01
sS'fails'
p1670
I0
sS'verified'
p1671
I00
sS'scrape_incomplete'
p1672
I-1
sS'min_announce'
p1673
NsS'scrape_downloaded'
p1674
I-1
sS'url'
p1675
S'udp://eddie4.nl:6969/announce'
p1676
sS'last_error'
p1677
(dp1678
S'category'
p1679
S'system'
p1680
sS'value'
p1681
I0
ssS'fail_limit'
p1682
I0
sS'next_announce'
p1683
NsS'complete_sent'
p1684
I00
sS'source'
p1685
I4
sS'trackerid'
p1686
S''
sS'start_sent'
p1687
I00
sS'tier'
p1688
I4
sS'scrape_complete'
p1689
I-1
sS'message'
p1690
S''
sS'updating'
p1691
I00
sa(dp1692
S'send_stats'
p1693
I01
sS'fails'
p1694
I0
sS'verified'
p1695
I00
sS'scrape_incomplete'
p1696
I-1
sS'min_announce'
p1697
NsS'scrape_downloaded'
p1698
I-1
sS'url'
p1699
S'udp://tracker.zer0day.to:1337/announce'
p1700
sS'last_error'
p1701
(dp1702
S'category'
p1703
S'system'
p1704
sS'value'
p1705
I0
ssS'fail_limit'
p1706
I0
sS'next_announce'
p1707
NsS'complete_sent'
p1708
I00
sS'source'
p1709
I4
sS'trackerid'
p1710
S''
sS'start_sent'
p1711
I00
sS'tier'
p1712
I5
sS'scrape_complete'
p1713
I-1
sS'message'
p1714
S''
sS'updating'
p1715
I00
sa(dp1716
S'send_stats'
p1717
I01
sS'fails'
p1718
I0
sS'verified'
p1719
I00
sS'scrape_incomplete'
p1720
I-1
sS'min_announce'
p1721
NsS'scrape_downloaded'
p1722
I-1
sS'url'
p1723
S'udp://p4p.arenabg.com:1337/announce'
p1724
sS'last_error'
p1725
(dp1726
S'category'
p1727
S'system'
p1728
sS'value'
p1729
I0
ssS'fail_limit'
p1730
I0
sS'next_announce'
p1731
NsS'complete_sent'
p1732
I00
sS'source'
p1733
I4
sS'trackerid'
p1734
S''
sS'start_sent'
p1735
I00
sS'tier'
p1736
I6
sS'scrape_complete'
p1737
I-1
sS'message'
p1738
S''
sS'updating'
p1739
I00
sa(dp1740
S'send_stats'
p1741
I01
sS'fails'
p1742
I0
sS'verified'
p1743
I00
sS'scrape_incomplete'
p1744
I-1
sS'min_announce'
p1745
NsS'scrape_downloaded'
p1746
I-1
sS'url'
p1747
S'udp://tracker.internetwarriors.net:1337/announce'
p1748
sS'last_error'
p1749
(dp1750
S'category'
p1751
S'system'
p1752
sS'value'
p1753
I0
ssS'fail_limit'
p1754
I0
sS'next_announce'
p1755
NsS'complete_sent'
p1756
I00
sS'source'
p1757
I4
sS'trackerid'
p1758
S''
sS'start_sent'
p1759
I00
sS'tier'
p1760
I7
sS'scrape_complete'
p1761
I-1
sS'message'
p1762
S''
sS'updating'
p1763
I00
sa(dp1764
S'send_stats'
p1765
I01
sS'fails'
p1766
I0
sS'verified'
p1767
I00
sS'scrape_incomplete'
p1768
I-1
sS'min_announce'
p1769
NsS'scrape_downloaded'
p1770
I-1
sS'url'
p1771
S'udp://9.rarbg.me:2750/announce'
p1772
sS'last_error'
p1773
(dp1774
S'category'
p1775
S'system'
p1776
sS'value'
p1777
I0
ssS'fail_limit'
p1778
I0
sS'next_announce'
p1779
NsS'complete_sent'
p1780
I00
sS'source'
p1781
I4
sS'trackerid'
p1782
S''
sS'start_sent'
p1783
I00
sS'tier'
p1784
I8
sS'scrape_complete'
p1785
I-1
sS'message'
p1786
S''
sS'updating'
p1787
I00
sa(dp1788
S'send_stats'
p1789
I01
sS'fails'
p1790
I0
sS'verified'
p1791
I00
sS'scrape_incomplete'
p1792
I-1
sS'min_announce'
p1793
NsS'scrape_downloaded'
p1794
I-1
sS'url'
p1795
S'udp://9.rarbg.to:2770/announce'
p1796
sS'last_error'
p1797
(dp1798
S'category'
p1799
S'system'
p1800
sS'value'
p1801
I0
ssS'fail_limit'
p1802
I0
sS'next_announce'
p1803
NsS'complete_sent'
p1804
I00
sS'source'
p1805
I4
sS'trackerid'
p1806
S''
sS'start_sent'
p1807
I00
sS'tier'
p1808
I9
sS'scrape_complete'
p1809
I-1
sS'message'
p1810
S''
sS'updating'
p1811
I00
sa(dp1812
S'send_stats'
p1813
I01
sS'fails'
p1814
I0
sS'verified'
p1815
I00
sS'scrape_incomplete'
p1816
I-1
sS'min_announce'
p1817
NsS'scrape_downloaded'
p1818
I-1
sS'url'
p1819
S'http://nyaa.tracker.wf:7777/announce'
p1820
sS'last_error'
p1821
(dp1822
S'category'
p1823
S'system'
p1824
sS'value'
p1825
I0
ssS'fail_limit'
p1826
I0
sS'next_announce'
p1827
NsS'complete_sent'
p1828
I00
sS'source'
p1829
I4
sS'trackerid'
p1830
S''
sS'start_sent'
p1831
I00
sS'tier'
p1832
I10
sS'scrape_complete'
p1833
I-1
sS'message'
p1834
S''
sS'updating'
p1835
I00
sa(dp1836
S'send_stats'
p1837
I01
sS'fails'
p1838
I0
sS'verified'
p1839
I00
sS'scrape_incomplete'
p1840
I-1
sS'min_announce'
p1841
NsS'scrape_downloaded'
p1842
I-1
sS'url'
p1843
S'http://sukebei.tracker.wf:8888/announce'
p1844
sS'last_error'
p1845
(dp1846
S'category'
p1847
S'system'
p1848
sS'value'
p1849
I0
ssS'fail_limit'
p1850
I0
sS'next_announce'
p1851
NsS'complete_sent'
p1852
I00
sS'source'
p1853
I4
sS'trackerid'
p1854
S''
sS'start_sent'
p1855
I00
sS'tier'
p1856
I11
sS'scrape_complete'
p1857
I-1
sS'message'
p1858
S''
sS'updating'
p1859
I00
sa(dp1860
S'send_stats'
p1861
I01
sS'fails'
p1862
I0
sS'verified'
p1863
I00
sS'scrape_incomplete'
p1864
I-1
sS'min_announce'
p1865
NsS'scrape_downloaded'
p1866
I-1
sS'url'
p1867
S'http://anidex.moe:6969/announce'
p1868
sS'last_error'
p1869
(dp1870
S'category'
p1871
S'system'
p1872
sS'value'
p1873
I0
ssS'fail_limit'
p1874
I0
sS'next_announce'
p1875
NsS'complete_sent'
p1876
I00
sS'source'
p1877
I4
sS'trackerid'
p1878
S''
sS'start_sent'
p1879
I00
sS'tier'
p1880
I12
sS'scrape_complete'
p1881
I-1
sS'message'
p1882
S''
sS'updating'
p1883
I00
sasg56
Nsg57
I00
sg58
F2
sg59
I01
sba(ideluge.core.torrentmanager
TorrentState
p1884
(dp1885
g7
F-1
sg8
S'/home/defaultuser/Downloads'
p1886
sg10
I01
sg11
I-1
sg12
I00
sg13
I-1
sg14
I00
sg15
I22
sg16
(lp1887
I0
aI0
aI0
aI0
aI0
aI0
aI0
aI0
aI0
aI0
aI1
aI1
aI1
asg18
S'\xd0\x92\xd0\xbe \xd0\xb2\xd1\x81\xd0\xb5 \xd1\x82\xd1\x8f\xd0\xb6\xd0\xba\xd0\xb8\xd0\xb5 Breaking Bad \xd0\xa1\xd0\xb5\xd0\xb7\xd0\xbe\xd0\xbd 2 \xd0\xa1\xd0\xb5\xd1\x80\xd0\xb8\xd0\xb8 1-13 (13) (\xd0\x92\xd0\xb8\xd0\xbd\xd1\x81 \xd0\x93\xd0\xb8\xd0\xbb\xd0\xbb\xd0\xb8\xd0\xb3\xd0\xb0\xd0\xbd, \xd0\x90\xd0\xb4\xd0\xb0\xd0\xbc \xd0\x91\xd0\xb5\xd1\x80\xd0\xbd\xd1\x81\xd1\x82\xd0\xb0\xd0\xb9\xd0\xbd) [2009, \xd0\xa1\xd0\xa8\xd0\x90, \xd0\xb4\xd1\x80\xd0\xb0\xd0\xbc\xd0\xb0, \xd0\xba\xd1\x80\xd0\xb8\xd0\xbc\xd0\xb8\xd0\xbd\xd0\xb0\xd0\xbb, BDRip 720p [rutracker-5199460]-1.torrent'
p1888
sg20
F-1
sg21
S'/home/win/e'
p1889
sg23
F1521747519.2221229
sg24
I541144212
sg25
S'6926d5d1e74df283c166db1e1e8449d89309cf2c'
p1890
sg27
I01
sg28
I00
sg29
I00
sg30
(lp1891
(dp1892
S'send_stats'
p1893
I01
sS'fails'
p1894
I0
sS'verified'
p1895
I00
sS'scrape_incomplete'
p1896
I-1
sS'min_announce'
p1897
NsS'source'
p1898
I1
sS'url'
p1899
S'http://bt2.t-ru.org/ann'
p1900
sS'last_error'
p1901
(dp1902
S'category'
p1903
S'system'
p1904
sS'value'
p1905
I0
ssS'fail_limit'
p1906
I0
sS'next_announce'
p1907
NsS'complete_sent'
p1908
I00
sS'scrape_downloaded'
p1909
I-1
sS'trackerid'
p1910
S''
sS'start_sent'
p1911
I00
sS'tier'
p1912
I0
sS'scrape_complete'
p1913
I-1
sS'message'
p1914
S''
sS'updating'
p1915
I00
sa(dp1916
S'send_stats'
p1917
I01
sS'fails'
p1918
I0
sS'verified'
p1919
I00
sS'scrape_incomplete'
p1920
I-1
sS'min_announce'
p1921
NsS'source'
p1922
I1
sS'url'
p1923
S'http://retracker.local/announce'
p1924
sS'last_error'
p1925
(dp1926
S'category'
p1927
S'system'
p1928
sS'value'
p1929
I0
ssS'fail_limit'
p1930
I0
sS'next_announce'
p1931
NsS'complete_sent'
p1932
I00
sS'scrape_downloaded'
p1933
I-1
sS'trackerid'
p1934
S''
sS'start_sent'
p1935
I00
sS'tier'
p1936
I1
sS'scrape_complete'
p1937
I-1
sS'message'
p1938
S''
sS'updating'
p1939
I00
sasg56
Nsg57
I00
sg58
F2
sg59
I01
sba(ideluge.core.torrentmanager
TorrentState
p1940
(dp1941
g7
F-1
sg8
S'/home/defaultuser/Downloads'
p1942
sg10
I01
sg11
I-1
sg12
I00
sg13
I-1
sg14
I00
sg15
I27
sg16
(lp1943
I0
aI0
aI0
aI0
aI0
aI0
aI0
aI0
aI0
aI0
aI0
aI0
aI0
aI0
aI0
aI0
aI0
aI0
aI0
aI0
aI0
aI0
aI0
aI0
aI0
aI0
aI0
aI0
aI0
aI0
aI0
aI0
aI0
aI0
aI0
aI0
aI0
aI0
aI0
aI0
aI0
aI0
aI0
aI0
aI0
aI0
aI1
aI1
aI1
aI1
aI1
aI1
aI1
aI1
aI1
aI1
aI1
aI0
aI0
aI0
aI0
aI0
aI0
aI0
aI0
aI0
aI0
asg18
S'(Synthwave, Dreamwave, Dark Synth, Retro Electro) [WEB] GosT - 9 releases (2013-2016), FLAC (tracks), lossless [rutracker-5338893].torrent'
p1944
sg20
F-1
sg21
S'/home/defaultuser/Music'
p1945
sg23
F1521192082.5220549
sg24
I0
sg25
S'59593e12a242935d37614822e5953a54f1259e71'
p1946
sg27
I01
sg28
I00
sg29
I00
sg30
(lp1947
(dp1948
S'send_stats'
p1949
I01
sS'fails'
p1950
I0
sS'verified'
p1951
I00
sS'scrape_incomplete'
p1952
I-1
sS'min_announce'
p1953
NsS'source'
p1954
I2
sS'url'
p1955
S'http://bt.t-ru.org/ann'
p1956
sS'last_error'
p1957
(dp1958
S'category'
p1959
S'system'
p1960
sS'value'
p1961
I0
ssS'fail_limit'
p1962
I0
sS'next_announce'
p1963
NsS'complete_sent'
p1964
I00
sS'scrape_downloaded'
p1965
I-1
sS'trackerid'
p1966
S''
sS'start_sent'
p1967
I00
sS'tier'
p1968
I0
sS'scrape_complete'
p1969
I-1
sS'message'
p1970
S''
sS'updating'
p1971
I00
sa(dp1972
S'send_stats'
p1973
I01
sS'fails'
p1974
I0
sS'verified'
p1975
I00
sS'scrape_incomplete'
p1976
I-1
sS'min_announce'
p1977
NsS'source'
p1978
I2
sS'url'
p1979
S'http://retracker.local/announce'
p1980
sS'last_error'
p1981
(dp1982
S'category'
p1983
S'system'
p1984
sS'value'
p1985
I0
ssS'fail_limit'
p1986
I0
sS'next_announce'
p1987
NsS'complete_sent'
p1988
I00
sS'scrape_downloaded'
p1989
I-1
sS'trackerid'
p1990
S''
sS'start_sent'
p1991
I00
sS'tier'
p1992
I1
sS'scrape_complete'
p1993
I-1
sS'message'
p1994
S''
sS'updating'
p1995
I00
sasg56
Nsg57
I00
sg58
F2
sg59
I00
sba(ideluge.core.torrentmanager
TorrentState
p1996
(dp1997
g7
F-1
sg8
S'/home/defaultuser/Downloads'
p1998
sg10
I00
sg11
I-1
sg12
I00
sg13
I-1
sg14
I00
sg15
I55
sg16
(lp1999
I1
asg18
S'[\xd0\x92 \xd1\x80\xd0\xb0\xd0\xb7\xd1\x80\xd0\xb0\xd0\xb1\xd0\xbe\xd1\x82\xd0\xba\xd0\xb5] Slay the Spire (28.06.18) [x86, amd64] [Multi] [Java] [rutracker-5515541].torrent'
p2000
sg20
F-1
sg21
S'/home/win/e'
p2001
sg23
F1530385104.5799029
sg24
I0
sg25
S'eaed3ea29607611e75555fe43a511cf477970001'
p2002
sg27
I01
sg28
I00
sg29
I00
sg30
(lp2003
(dp2004
S'send_stats'
p2005
I01
sS'fails'
p2006
I0
sS'verified'
p2007
I00
sS'scrape_incomplete'
p2008
I-1
sS'min_announce'
p2009
NsS'source'
p2010
I1
sS'url'
p2011
S'http://bt3.t-ru.org/ann'
p2012
sS'last_error'
p2013
(dp2014
S'category'
p2015
S'system'
p2016
sS'value'
p2017
I0
ssS'fail_limit'
p2018
I0
sS'next_announce'
p2019
NsS'complete_sent'
p2020
I00
sS'scrape_downloaded'
p2021
I-1
sS'trackerid'
p2022
S''
sS'start_sent'
p2023
I00
sS'tier'
p2024
I0
sS'scrape_complete'
p2025
I-1
sS'message'
p2026
S''
sS'updating'
p2027
I00
sa(dp2028
S'send_stats'
p2029
I01
sS'fails'
p2030
I0
sS'verified'
p2031
I00
sS'scrape_incomplete'
p2032
I-1
sS'min_announce'
p2033
NsS'source'
p2034
I1
sS'url'
p2035
S'http://retracker.local/announce'
p2036
sS'last_error'
p2037
(dp2038
S'category'
p2039
S'system'
p2040
sS'value'
p2041
I0
ssS'fail_limit'
p2042
I0
sS'next_announce'
p2043
NsS'complete_sent'
p2044
I00
sS'scrape_downloaded'
p2045
I-1
sS'trackerid'
p2046
S''
sS'start_sent'
p2047
I00
sS'tier'
p2048
I1
sS'scrape_complete'
p2049
I-1
sS'message'
p2050
S''
sS'updating'
p2051
I00
sasg56
Nsg57
I00
sg58
F2
sg59
I00
sba(ideluge.core.torrentmanager
TorrentState
p2052
(dp2053
g7
F-1
sg8
S'/home/defaultuser/Downloads'
p2054
sg10
I01
sg11
I-1
sg12
I00
sg13
I-1
sg14
I00
sg15
I37
sg16
(lp2055
I4
aI4
aI4
aI4
aI4
aI4
aI4
aI4
aI4
aI4
aI4
aI4
asg18
S'7886f73b9df0f67275b9a698f52d02def7c8fc18'
p2056
sg20
F-1
sg21
S'/home/defaultuser/Music'
p2057
sg23
F1521194365.675406
sg24
I0
sg25
S'7886f73b9df0f67275b9a698f52d02def7c8fc18'
p2058
sg27
I01
sg28
I00
sg29
I00
sg30
(lp2059
(dp2060
S'send_stats'
p2061
I01
sS'fails'
p2062
I0
sS'verified'
p2063
I00
sS'scrape_incomplete'
p2064
I-1
sS'min_announce'
p2065
NsS'scrape_downloaded'
p2066
I-1
sS'url'
p2067
S'http://bt2.t-ru.org/ann?magnet'
p2068
sS'last_error'
p2069
(dp2070
S'category'
p2071
S'system'
p2072
sS'value'
p2073
I0
ssS'fail_limit'
p2074
I0
sS'next_announce'
p2075
NsS'complete_sent'
p2076
I00
sS'source'
p2077
I4
sS'trackerid'
p2078
S''
sS'start_sent'
p2079
I00
sS'tier'
p2080
I0
sS'scrape_complete'
p2081
I-1
sS'message'
p2082
S''
sS'updating'
p2083
I00
sasg56
Nsg57
I00
sg58
F2
sg59
I00
sba(ideluge.core.torrentmanager
TorrentState
p2084
(dp2085
g7
F-1
sg8
S'/home/defaultuser/Downloads'
p2086
sg10
I01
sg11
I-1
sg12
I00
sg13
I-1
sg14
I00
sg15
I19
sg16
(lp2087
I4
asg18
S'b30296e03bf0015cef0f457c226ad958dd5c51af'
p2088
sg20
F-1
sg21
S'/home/win/e'
p2089
sg23
F1522069843.378526
sg24
I0
sg25
S'b30296e03bf0015cef0f457c226ad958dd5c51af'
p2090
sg27
I01
sg28
I00
sg29
I00
sg30
(lp2091
(dp2092
S'send_stats'
p2093
I01
sS'fails'
p2094
I0
sS'verified'
p2095
I00
sS'scrape_incomplete'
p2096
I-1
sS'min_announce'
p2097
NsS'scrape_downloaded'
p2098
I-1
sS'url'
p2099
S'http://bt3.t-ru.org/ann?magnet'
p2100
sS'last_error'
p2101
(dp2102
S'category'
p2103
S'system'
p2104
sS'value'
p2105
I0
ssS'fail_limit'
p2106
I0
sS'next_announce'
p2107
NsS'complete_sent'
p2108
I00
sS'source'
p2109
I4
sS'trackerid'
p2110
S''
sS'start_sent'
p2111
I00
sS'tier'
p2112
I0
sS'scrape_complete'
p2113
I-1
sS'message'
p2114
S''
sS'updating'
p2115
I00
sasg56
Nsg57
I00
sg58
F2
sg59
I01
sba(ideluge.core.torrentmanager
TorrentState
p2116
(dp2117
g7
F-1
sg8
S'/home/defaultuser/Downloads'
p2118
sg10
I01
sg11
I-1
sg12
I00
sg13
I-1
sg14
I00
sg15
I41
sg16
(lp2119
I0
aI0
aI0
aI0
aI0
aI0
aI0
aI0
aI0
aI1
aI0
aI0
aI0
aI0
aI0
aI0
aI0
aI0
aI0
aI1
aI0
aI0
aI0
aI0
aI0
aI0
aI0
aI0
aI0
aI0
aI0
aI1
aI0
aI0
aI0
aI0
aI0
aI0
aI1
aI0
aI0
aI0
aI0
aI0
aI0
aI0
aI0
aI1
aI1
aI0
aI0
aI0
aI1
aI0
aI1
aI0
aI0
aI0
aI0
aI1
aI0
aI0
aI0
aI1
aI0
aI1
aI0
aI0
aI0
aI0
aI0
aI0
aI0
aI1
aI0
aI0
aI0
aI0
asg18
S"(80's outrun strings symphony synthwave) Kalax - Discography (7 releases) - 2013-2017, MP3, 320 kbps [rutracker-5268530].torrent"
p2120
sg20
F-1
sg21
S'/home/defaultuser/Music'
p2121
sg23
F1521191944.438395
sg24
I0
sg25
S'294747c6528c2d5f360d7b73508699c334daf747'
p2122
sg27
I01
sg28
I00
sg29
I00
sg30
(lp2123
sg56
Nsg57
I00
sg58
F2
sg59
I00
sba(ideluge.core.torrentmanager
TorrentState
p2124
(dp2125
g7
F-1
sg8
S'/home/defaultuser/Downloads'
p2126
sg10
I01
sg11
I-1
sg12
I00
sg13
I-1
sg14
I00
sg15
I-1
sg16
(lp2127
I0
aI0
aI0
aI0
aI0
aI0
aI0
aI0
aI0
aI0
aI0
aI0
aI0
aI0
aI0
aI0
aI0
aI0
aI0
aI0
aI0
asg18
S'\xd0\x92\xd0\xbe \xd0\xb2\xd1\x81\xd0\xb5 \xd1\x82\xd1\x8f\xd0\xb6\xd0\xba\xd0\xb8\xd0\xb5 Breaking Bad \xd0\xa1\xd0\xb5\xd0\xb7\xd0\xbe\xd0\xbd 1 \xd0\xa1\xd0\xb5\xd1\x80\xd0\xb8\xd0\xb8 1-7 (7) (\xd0\x90\xd0\xb4\xd0\xb0\xd0\xbc \xd0\x91\xd0\xb5\xd1\x80\xd0\xbd\xd1\x88\xd1\x82\xd0\xb5\xd0\xb9\xd0\xbd) [2008, \xd0\xa1\xd0\xa8\xd0\x90, \xd0\xb4\xd1\x80\xd0\xb0\xd0\xbc\xd0\xb0, \xd0\xba\xd1\x80\xd0\xb8\xd0\xbc\xd0\xb8\xd0\xbd\xd0\xb0\xd0\xbb, BDRip] (\xd0\x9a\xd1\x83\xd0\xb1\xd0\xb8\xd0\xba \xd0\xb2 \xd0\x9a\xd1\x83\xd0\xb1\xd0\xb5) + Origi [rutracker-3700985].torrent'
p2128
sg20
F-1
sg21
S'/home/win/e'
p2129
sg23
F1521648485.7926879
sg24
I40501248
sg25
S'dddd7c638a275c41ef844bfdba4ae787b78b5ebb'
p2130
sg27
I01
sg28
I00
sg29
I00
sg30
(lp2131
(dp2132
S'send_stats'
p2133
I01
sS'fails'
p2134
I0
sS'verified'
p2135
I00
sS'scrape_incomplete'
p2136
I-1
sS'min_announce'
p2137
NsS'source'
p2138
I1
sS'url'
p2139
S'http://bt4.t-ru.org/ann'
p2140
sS'last_error'
p2141
(dp2142
S'category'
p2143
S'system'
p2144
sS'value'
p2145
I0
ssS'fail_limit'
p2146
I0
sS'next_announce'
p2147
NsS'complete_sent'
p2148
I00
sS'scrape_downloaded'
p2149
I-1
sS'trackerid'
p2150
S''
sS'start_sent'
p2151
I00
sS'tier'
p2152
I0
sS'scrape_complete'
p2153
I-1
sS'message'
p2154
S''
sS'updating'
p2155
I00
sa(dp2156
S'send_stats'
p2157
I01
sS'fails'
p2158
I0
sS'verified'
p2159
I00
sS'scrape_incomplete'
p2160
I-1
sS'min_announce'
p2161
NsS'source'
p2162
I1
sS'url'
p2163
S'http://retracker.local/announce'
p2164
sS'last_error'
p2165
(dp2166
S'category'
p2167
S'system'
p2168
sS'value'
p2169
I0
ssS'fail_limit'
p2170
I0
sS'next_announce'
p2171
NsS'complete_sent'
p2172
I00
sS'scrape_downloaded'
p2173
I-1
sS'trackerid'
p2174
S''
sS'start_sent'
p2175
I00
sS'tier'
p2176
I1
sS'scrape_complete'
p2177
I-1
sS'message'
p2178
S''
sS'updating'
p2179
I00
sasg56
Nsg57
I00
sg58
F2
sg59
I01
sba(ideluge.core.torrentmanager
TorrentState
p2180
(dp2181
g7
F-1
sg8
S'/home/defaultuser/Downloads'
p2182
sg10
I01
sg11
I-1
sg12
I00
sg13
I-1
sg14
I00
sg15
I13
sg16
(lp2183
I4
asg18
S'365b1b24a753d2ade3d79e4c68a6e3c79dbb2546'
p2184
sg20
F-1
sg21
S'/home/win/e'
p2185
sg23
F1521311979.6246791
sg24
I67485696
sg25
S'365b1b24a753d2ade3d79e4c68a6e3c79dbb2546'
p2186
sg27
I01
sg28
I00
sg29
I00
sg30
(lp2187
(dp2188
S'send_stats'
p2189
I01
sS'fails'
p2190
I0
sS'verified'
p2191
I00
sS'scrape_incomplete'
p2192
I-1
sS'min_announce'
p2193
NsS'source'
p2194
I4
sS'url'
p2195
S'udp://tracker.archlinux.org:6969'
p2196
sS'last_error'
p2197
(dp2198
S'category'
p2199
S'system'
p2200
sS'value'
p2201
I0
ssS'fail_limit'
p2202
I0
sS'next_announce'
p2203
NsS'complete_sent'
p2204
I00
sS'scrape_downloaded'
p2205
I-1
sS'trackerid'
p2206
S''
sS'start_sent'
p2207
I00
sS'tier'
p2208
I0
sS'scrape_complete'
p2209
I-1
sS'message'
p2210
S''
sS'updating'
p2211
I00
sa(dp2212
S'send_stats'
p2213
I01
sS'fails'
p2214
I0
sS'verified'
p2215
I00
sS'scrape_incomplete'
p2216
I-1
sS'min_announce'
p2217
NsS'source'
p2218
I4
sS'url'
p2219
S'http://tracker.archlinux.org:6969/announce'
p2220
sS'last_error'
p2221
(dp2222
S'category'
p2223
S'system'
p2224
sS'value'
p2225
I0
ssS'fail_limit'
p2226
I0
sS'next_announce'
p2227
NsS'complete_sent'
p2228
I00
sS'scrape_downloaded'
p2229
I-1
sS'trackerid'
p2230
S''
sS'start_sent'
p2231
I00
sS'tier'
p2232
I1
sS'scrape_complete'
p2233
I-1
sS'message'
p2234
S''
sS'updating'
p2235
I00
sasg56
Nsg57
I00
sg58
F2
sg59
I01
sba(ideluge.core.torrentmanager
TorrentState
p2236
(dp2237
g7
F-1
sg8
S'/home/defaultuser/Downloads'
p2238
sg10
I01
sg11
I-1
sg12
I00
sg13
I-1
sg14
I00
sg15
I47
sg16
(lp2239
I4
aI4
asg18
S'07809446b9bd2542620a825270c298eadc3ae96a'
p2240
sg20
F-1
sg21
S'/home/defaultuser/Downloads'
p2241
sg23
F1520266226.097507
sg24
I0
sg25
S'07809446b9bd2542620a825270c298eadc3ae96a'
p2242
sg27
I01
sg28
I00
sg29
I00
sg30
(lp2243
(dp2244
S'send_stats'
p2245
I01
sS'fails'
p2246
I0
sS'verified'
p2247
I00
sS'scrape_incomplete'
p2248
I-1
sS'min_announce'
p2249
NsS'source'
p2250
I4
sS'url'
p2251
S'http://bt3.t-ru.org/ann?magnet'
p2252
sS'last_error'
p2253
(dp2254
S'category'
p2255
S'system'
p2256
sS'value'
p2257
I0
ssS'fail_limit'
p2258
I0
sS'next_announce'
p2259
NsS'complete_sent'
p2260
I00
sS'scrape_downloaded'
p2261
I-1
sS'trackerid'
p2262
S''
sS'start_sent'
p2263
I00
sS'tier'
p2264
I0
sS'scrape_complete'
p2265
I-1
sS'message'
p2266
S''
sS'updating'
p2267
I00
sasg56
Nsg57
I00
sg58
F2
sg59
I00
sba(ideluge.core.torrentmanager
TorrentState
p2268
(dp2269
g7
F-1
sg8
S'/home/defaultuser/Downloads'
p2270
sg10
I01
sg11
I-1
sg12
I00
sg13
I-1
sg14
I00
sg15
I51
sg16
(lp2271
I1
aI1
aI1
aI1
aI1
aI1
aI1
aI1
aI1
aI1
aI1
aI1
aI1
aI1
aI1
asg18
S"(80's Dreamwave Synthpop Synthwave New Retro Wave) Timecop1983 - Journeys {WEB} - 2014, FLAC (tracks), lossless [rutracker-4823525].torrent"
p2272
sg20
F-1
sg21
S'/home/defaultuser/Music'
p2273
sg23
F1521192092.5035231
sg24
I0
sg25
S'b095c1a091a1e5bf224355b9afabc40f65b3a3c4'
p2274
sg27
I01
sg28
I00
sg29
I00
sg30
(lp2275
(dp2276
S'send_stats'
p2277
I01
sS'fails'
p2278
I0
sS'verified'
p2279
I00
sS'scrape_incomplete'
p2280
I-1
sS'min_announce'
p2281
NsS'scrape_downloaded'
p2282
I-1
sS'url'
p2283
S'http://bt4.t-ru.org/ann'
p2284
sS'last_error'
p2285
(dp2286
S'category'
p2287
S'system'
p2288
sS'value'
p2289
I0
ssS'fail_limit'
p2290
I0
sS'next_announce'
p2291
NsS'complete_sent'
p2292
I00
sS'source'
p2293
I1
sS'trackerid'
p2294
S''
sS'start_sent'
p2295
I00
sS'tier'
p2296
I0
sS'scrape_complete'
p2297
I-1
sS'message'
p2298
S''
sS'updating'
p2299
I00
sa(dp2300
S'send_stats'
p2301
I01
sS'fails'
p2302
I0
sS'verified'
p2303
I00
sS'scrape_incomplete'
p2304
I-1
sS'min_announce'
p2305
NsS'scrape_downloaded'
p2306
I-1
sS'url'
p2307
S'http://retracker.local/announce'
p2308
sS'last_error'
p2309
(dp2310
S'category'
p2311
S'system'
p2312
sS'value'
p2313
I0
ssS'fail_limit'
p2314
I0
sS'next_announce'
p2315
NsS'complete_sent'
p2316
I00
sS'source'
p2317
I1
sS'trackerid'
p2318
S''
sS'start_sent'
p2319
I00
sS'tier'
p2320
I1
sS'scrape_complete'
p2321
I-1
sS'message'
p2322
S''
sS'updating'
p2323
I00
sasg56
Nsg57
I00
sg58
F2
sg59
I00
sba(ideluge.core.torrentmanager
TorrentState
p2324
(dp2325
g7
F-1
sg8
S'/home/defaultuser/Downloads'
p2326
sg10
I01
sg11
I-1
sg12
I00
sg13
I-1
sg14
I00
sg15
I33
sg16
(lp2327
I1
aI1
aI1
aI1
aI1
aI1
aI1
aI1
aI1
aI1
aI1
aI1
aI1
aI1
aI1
aI1
asg18
S'(Electronic Synthpop) [CD] Com Truise - Iteration - 2017, FLAC (tracks+.cue), lossless [rutracker-5418814].torrent'
p2328
sg20
F-1
sg21
S'/home/defaultuser/Music'
p2329
sg23
F1521191978.912612
sg24
I0
sg25
S'ff735348e2778c967fabb22276dbf0adce21e833'
p2330
sg27
I01
sg28
I00
sg29
I00
sg30
(lp2331
(dp2332
S'send_stats'
p2333
I01
sS'fails'
p2334
I0
sS'verified'
p2335
I00
sS'scrape_incomplete'
p2336
I-1
sS'min_announce'
p2337
NsS'scrape_downloaded'
p2338
I-1
sS'url'
p2339
S'http://bt4.t-ru.org/ann'
p2340
sS'last_error'
p2341
(dp2342
S'category'
p2343
S'system'
p2344
sS'value'
p2345
I0
ssS'fail_limit'
p2346
I0
sS'next_announce'
p2347
NsS'complete_sent'
p2348
I00
sS'source'
p2349
I1
sS'trackerid'
p2350
S''
sS'start_sent'
p2351
I00
sS'tier'
p2352
I0
sS'scrape_complete'
p2353
I-1
sS'message'
p2354
S''
sS'updating'
p2355
I00
sa(dp2356
S'send_stats'
p2357
I01
sS'fails'
p2358
I0
sS'verified'
p2359
I00
sS'scrape_incomplete'
p2360
I-1
sS'min_announce'
p2361
NsS'scrape_downloaded'
p2362
I-1
sS'url'
p2363
S'http://retracker.local/announce'
p2364
sS'last_error'
p2365
(dp2366
S'category'
p2367
S'system'
p2368
sS'value'
p2369
I0
ssS'fail_limit'
p2370
I0
sS'next_announce'
p2371
NsS'complete_sent'
p2372
I00
sS'source'
p2373
I1
sS'trackerid'
p2374
S''
sS'start_sent'
p2375
I00
sS'tier'
p2376
I1
sS'scrape_complete'
p2377
I-1
sS'message'
p2378
S''
sS'updating'
p2379
I00
sasg56
Nsg57
I00
sg58
F2
sg59
I00
sba(ideluge.core.torrentmanager
TorrentState
p2380
(dp2381
g7
F-1
sg8
S'/home/defaultuser/Downloads'
p2382
sg10
I01
sg11
I-1
sg12
I00
sg13
I-1
sg14
I00
sg15
I35
sg16
(lp2383
I0
aI0
aI0
aI0
aI0
aI0
aI0
aI0
aI0
aI0
aI0
aI0
aI0
aI0
aI0
aI0
aI0
aI0
aI0
aI0
aI0
aI0
aI0
aI0
aI0
aI0
aI0
aI0
aI1
aI1
aI1
aI1
aI1
aI1
aI1
aI1
aI1
aI1
aI1
aI1
aI1
aI1
aI1
aI1
aI1
aI1
aI1
aI1
aI1
aI1
aI1
aI1
aI1
asg18
S'(Dark Synth, Synthwave, Retro Wave) Dan Terminus - Discography (5 Releases) - 2014-2017, MP3, 320 kbps [rutracker-5268083].torrent'
p2384
sg20
F-1
sg21
S'/home/defaultuser/Music'
p2385
sg23
F1521192105.91065
sg24
I0
sg25
S'1ce4665e7152203755dd4a51a659104c733c33dd'
p2386
sg27
I01
sg28
I00
sg29
I00
sg30
(lp2387
(dp2388
S'send_stats'
p2389
I01
sS'fails'
p2390
I0
sS'verified'
p2391
I00
sS'scrape_incomplete'
p2392
I-1
sS'min_announce'
p2393
NsS'scrape_downloaded'
p2394
I-1
sS'url'
p2395
S'http://bt4.t-ru.org/ann'
p2396
sS'last_error'
p2397
(dp2398
S'category'
p2399
S'system'
p2400
sS'value'
p2401
I0
ssS'fail_limit'
p2402
I0
sS'next_announce'
p2403
NsS'complete_sent'
p2404
I00
sS'source'
p2405
I1
sS'trackerid'
p2406
S''
sS'start_sent'
p2407
I00
sS'tier'
p2408
I0
sS'scrape_complete'
p2409
I-1
sS'message'
p2410
S''
sS'updating'
p2411
I00
sa(dp2412
S'send_stats'
p2413
I01
sS'fails'
p2414
I0
sS'verified'
p2415
I00
sS'scrape_incomplete'
p2416
I-1
sS'min_announce'
p2417
NsS'scrape_downloaded'
p2418
I-1
sS'url'
p2419
S'http://retracker.local/announce'
p2420
sS'last_error'
p2421
(dp2422
S'category'
p2423
S'system'
p2424
sS'value'
p2425
I0
ssS'fail_limit'
p2426
I0
sS'next_announce'
p2427
NsS'complete_sent'
p2428
I00
sS'source'
p2429
I1
sS'trackerid'
p2430
S''
sS'start_sent'
p2431
I00
sS'tier'
p2432
I1
sS'scrape_complete'
p2433
I-1
sS'message'
p2434
S''
sS'updating'
p2435
I00
sasg56
Nsg57
I00
sg58
F2
sg59
I00
sba(ideluge.core.torrentmanager
TorrentState
p2436
(dp2437
g7
F-1
sg8
S'/home/defaultuser/Downloads'
p2438
sg10
I01
sg11
I-1
sg12
I00
sg13
I-1
sg14
I00
sg15
I14
sg16
(lp2439
I1
aI1
aI1
aI1
aI1
aI1
aI1
aI1
aI1
aI1
aI1
aI1
aI1
aI1
aI1
aI1
aI1
aI1
aI1
aI1
asg18
S"(Synthwave Horror 80's) [WEB] Carpenter Brut - Trilogy - 2015, FLAC (tracks), lossless [rutracker-4940621].torrent"
p2440
sg20
F-1
sg21
S'/home/win/e/Music'
p2441
sg23
F1520527911.653132
sg24
I0
sg25
S'256225442829426490517cd1cacb3a1258358cb2'
p2442
sg27
I01
sg28
I00
sg29
I00
sg30
(lp2443
(dp2444
S'send_stats'
p2445
I01
sS'fails'
p2446
I0
sS'verified'
p2447
I00
sS'scrape_incomplete'
p2448
I-1
sS'min_announce'
p2449
NsS'source'
p2450
I1
sS'url'
p2451
S'http://bt2.t-ru.org/ann'
p2452
sS'last_error'
p2453
(dp2454
S'category'
p2455
S'system'
p2456
sS'value'
p2457
I0
ssS'fail_limit'
p2458
I0
sS'next_announce'
p2459
NsS'complete_sent'
p2460
I00
sS'scrape_downloaded'
p2461
I-1
sS'trackerid'
p2462
S''
sS'start_sent'
p2463
I00
sS'tier'
p2464
I0
sS'scrape_complete'
p2465
I-1
sS'message'
p2466
S''
sS'updating'
p2467
I00
sa(dp2468
S'send_stats'
p2469
I01
sS'fails'
p2470
I0
sS'verified'
p2471
I00
sS'scrape_incomplete'
p2472
I-1
sS'min_announce'
p2473
NsS'source'
p2474
I1
sS'url'
p2475
S'http://retracker.local/announce'
p2476
sS'last_error'
p2477
(dp2478
S'category'
p2479
S'system'
p2480
sS'value'
p2481
I0
ssS'fail_limit'
p2482
I0
sS'next_announce'
p2483
NsS'complete_sent'
p2484
I00
sS'scrape_downloaded'
p2485
I-1
sS'trackerid'
p2486
S''
sS'start_sent'
p2487
I00
sS'tier'
p2488
I1
sS'scrape_complete'
p2489
I-1
sS'message'
p2490
S''
sS'updating'
p2491
I00
sasg56
Nsg57
I00
sg58
F2
sg59
I01
sba(ideluge.core.torrentmanager
TorrentState
p2492
(dp2493
g7
F-1
sg8
S'/home/defaultuser/Downloads'
p2494
sg10
I01
sg11
I-1
sg12
I00
sg13
I-1
sg14
I00
sg15
I44
sg16
(lp2495
I1
aI1
aI1
aI1
aI1
aI1
aI1
aI1
aI1
aI1
aI1
aI1
aI1
asg18
S'(80s Synthwave) [WEB] Mega Drive - Seas Of Infinity - 2017, FLAC (tracks), lossless [rutracker-5430611].torrent'
p2496
sg20
F-1
sg21
S'/home/defaultuser/Music'
p2497
sg23
F1521192068.8534811
sg24
I0
sg25
S'bd69b728ada798940f44d6b51a5a79b67463fed7'
p2498
sg27
I01
sg28
I00
sg29
I00
sg30
(lp2499
(dp2500
S'send_stats'
p2501
I01
sS'fails'
p2502
I0
sS'verified'
p2503
I00
sS'scrape_incomplete'
p2504
I-1
sS'min_announce'
p2505
NsS'scrape_downloaded'
p2506
I-1
sS'url'
p2507
S'http://bt.t-ru.org/ann'
p2508
sS'last_error'
p2509
(dp2510
S'category'
p2511
S'system'
p2512
sS'value'
p2513
I0
ssS'fail_limit'
p2514
I0
sS'next_announce'
p2515
NsS'complete_sent'
p2516
I00
sS'source'
p2517
I1
sS'trackerid'
p2518
S''
sS'start_sent'
p2519
I00
sS'tier'
p2520
I0
sS'scrape_complete'
p2521
I-1
sS'message'
p2522
S''
sS'updating'
p2523
I00
sa(dp2524
S'send_stats'
p2525
I01
sS'fails'
p2526
I0
sS'verified'
p2527
I00
sS'scrape_incomplete'
p2528
I-1
sS'min_announce'
p2529
NsS'scrape_downloaded'
p2530
I-1
sS'url'
p2531
S'http://retracker.local/announce'
p2532
sS'last_error'
p2533
(dp2534
S'category'
p2535
S'system'
p2536
sS'value'
p2537
I0
ssS'fail_limit'
p2538
I0
sS'next_announce'
p2539
NsS'complete_sent'
p2540
I00
sS'source'
p2541
I1
sS'trackerid'
p2542
S''
sS'start_sent'
p2543
I00
sS'tier'
p2544
I1
sS'scrape_complete'
p2545
I-1
sS'message'
p2546
S''
sS'updating'
p2547
I00
sasg56
Nsg57
I00
sg58
F2
sg59
I00
sba(ideluge.core.torrentmanager
TorrentState
p2548
(dp2549
g7
F-1
sg8
S'/home/defaultuser/Downloads'
p2550
sg10
I01
sg11
I-1
sg12
I00
sg13
I-1
sg14
I00
sg15
I3
sg16
(lp2551
I0
aI0
aI0
aI0
aI0
aI0
aI1
asg18
S'\xd0\x9c\xd0\xb8\xd1\x80 \xd0\x94\xd0\xb8\xd0\xba\xd0\xbe\xd0\xb3\xd0\xbe \xd0\xb7\xd0\xb0\xd0\xbf\xd0\xb0\xd0\xb4\xd0\xb0 Westworld \xd0\xa1\xd0\xb5\xd0\xb7\xd0\xbe\xd0\xbd 2 \xd0\xa1\xd0\xb5\xd1\x80\xd0\xb8\xd0\xb8 1-7 (10) (\xd0\xa0\xd0\xb8\xd1\x87\xd0\xb0\xd1\x80\xd0\xb4 \xd0\x94\xd0\xb6. \xd0\x9b\xd1\x8c\xd1\x8e\xd0\xb8\xd1\x81, \xd0\x92\xd0\xb8\xd0\xbd\xd1\x87\xd0\xb5\xd0\xbd\xd1\x86\xd0\xbe \xd0\x9d\xd0\xb0\xd1\x82\xd0\xb0\xd0\xbb\xd0\xb8, \xd0\x94\xd0\xb6\xd0\xbe\xd0\xbd\xd0\xb0\xd1\x82\xd0\xb0\xd0\xbd \xd0\x9d\xd0\xbe\xd0\xbb\xd0\xb0\xd0\xbd) [2018, \xd0\xa1\xd0\xa8\xd0\x90, \xd1\x84\xd0\xb0\xd0\xbd\xd1\x82\xd0\xb0\xd1\x81\xd1\x82 [rutracker-5552426]-1.torrent'
p2552
sg20
F-1
sg21
S'/home/win/e'
p2553
sg23
F1528188848.6161571
sg24
I311881055
sg25
S'2f660926020148da45057facdf5df2710af38ee1'
p2554
sg27
I01
sg28
I00
sg29
I00
sg30
(lp2555
(dp2556
S'send_stats'
p2557
I01
sS'fails'
p2558
I0
sS'verified'
p2559
I00
sS'scrape_incomplete'
p2560
I-1
sS'min_announce'
p2561
NsS'scrape_downloaded'
p2562
I-1
sS'url'
p2563
S'http://bt.t-ru.org/ann'
p2564
sS'last_error'
p2565
(dp2566
S'category'
p2567
S'system'
p2568
sS'value'
p2569
I0
ssS'fail_limit'
p2570
I0
sS'next_announce'
p2571
NsS'complete_sent'
p2572
I00
sS'source'
p2573
I1
sS'trackerid'
p2574
S''
sS'start_sent'
p2575
I00
sS'tier'
p2576
I0
sS'scrape_complete'
p2577
I-1
sS'message'
p2578
S''
sS'updating'
p2579
I00
sa(dp2580
S'send_stats'
p2581
I01
sS'fails'
p2582
I0
sS'verified'
p2583
I00
sS'scrape_incomplete'
p2584
I-1
sS'min_announce'
p2585
NsS'scrape_downloaded'
p2586
I-1
sS'url'
p2587
S'http://retracker.local/announce'
p2588
sS'last_error'
p2589
(dp2590
S'category'
p2591
S'system'
p2592
sS'value'
p2593
I0
ssS'fail_limit'
p2594
I0
sS'next_announce'
p2595
NsS'complete_sent'
p2596
I00
sS'source'
p2597
I1
sS'trackerid'
p2598
S''
sS'start_sent'
p2599
I00
sS'tier'
p2600
I1
sS'scrape_complete'
p2601
I-1
sS'message'
p2602
S''
sS'updating'
p2603
I00
sasg56
Nsg57
I00
sg58
F2
sg59
I01
sba(ideluge.core.torrentmanager
TorrentState
p2604
(dp2605
g7
F-1
sg8
S'/home/defaultuser/Downloads'
p2606
sg10
I01
sg11
I-1
sg12
I00
sg13
I-1
sg14
I00
sg15
I20
sg16
(lp2607
I1
aI1
aI1
aI1
aI1
aI1
aI1
aI1
aI1
aI1
aI1
aI1
asg18
S'\xd0\x9a\xd0\xbe\xd0\xbd\xd1\x8c \xd0\x91\xd0\xbe\xd0\x94\xd0\xb6\xd0\xb5\xd0\xba BoJack Horseman \xd0\xa1\xd0\xb5\xd0\xb7\xd0\xbe\xd0\xbd 2 \xd0\xa1\xd0\xb5\xd1\x80\xd0\xb8\xd0\xb8 1-12 \xd0\xb8\xd0\xb7 12 (\xd0\xa0\xd0\xb0\xd1\x84\xd0\xb0\xd1\x8d\xd0\xbb\xd1\x8c \xd0\x91\xd0\xbe\xd0\xb1-\xd0\xa3\xd0\xbe\xd0\xba\xd1\x81\xd0\xb1\xd0\xb5\xd1\x80\xd0\xb3 Raphael Bob-Waksberg) [2015, \xd0\xb4\xd1\x80\xd0\xb0\xd0\xbc\xd0\xb0, \xd0\xba\xd0\xbe\xd0\xbc\xd0\xb5\xd0\xb4\xd0\xb8\xd1\x8f, [rutracker-5425392].torrent'
p2608
sg20
F-1
sg21
S'/home/win/e'
p2609
sg23
F1521221928.7411251
sg24
I553400239
sg25
S'75049b4ba29153be42754faf0ca05660966c913a'
p2610
sg27
I01
sg28
I00
sg29
I00
sg30
(lp2611
(dp2612
S'send_stats'
p2613
I01
sS'fails'
p2614
I0
sS'verified'
p2615
I00
sS'scrape_incomplete'
p2616
I-1
sS'min_announce'
p2617
NsS'source'
p2618
I1
sS'url'
p2619
S'http://bt.t-ru.org/ann'
p2620
sS'last_error'
p2621
(dp2622
S'category'
p2623
S'system'
p2624
sS'value'
p2625
I0
ssS'fail_limit'
p2626
I0
sS'next_announce'
p2627
NsS'complete_sent'
p2628
I00
sS'scrape_downloaded'
p2629
I-1
sS'trackerid'
p2630
S''
sS'start_sent'
p2631
I00
sS'tier'
p2632
I0
sS'scrape_complete'
p2633
I-1
sS'message'
p2634
S''
sS'updating'
p2635
I00
sa(dp2636
S'send_stats'
p2637
I01
sS'fails'
p2638
I0
sS'verified'
p2639
I00
sS'scrape_incomplete'
p2640
I-1
sS'min_announce'
p2641
NsS'source'
p2642
I1
sS'url'
p2643
S'http://retracker.local/announce'
p2644
sS'last_error'
p2645
(dp2646
S'category'
p2647
S'system'
p2648
sS'value'
p2649
I0
ssS'fail_limit'
p2650
I0
sS'next_announce'
p2651
NsS'complete_sent'
p2652
I00
sS'scrape_downloaded'
p2653
I-1
sS'trackerid'
p2654
S''
sS'start_sent'
p2655
I00
sS'tier'
p2656
I1
sS'scrape_complete'
p2657
I-1
sS'message'
p2658
S''
sS'updating'
p2659
I00
sasg56
Nsg57
I00
sg58
F2
sg59
I01
sba(ideluge.core.torrentmanager
TorrentState
p2660
(dp2661
g7
F-1
sg8
S'/home/defaultuser/Downloads'
p2662
sg10
I01
sg11
I-1
sg12
I00
sg13
I-1
sg14
I00
sg15
I34
sg16
(lp2663
I1
aI1
aI1
aI1
aI1
aI1
aI1
aI1
aI1
aI1
aI1
aI1
aI1
aI1
asg18
S'[TR24][OF] Daniel Deluxe - Corruptor - 2016 (80s, Darksynth, Retrowave, Synthwave, Cyberpunk) [rutracker-5463027].torrent'
p2664
sg20
F-1
sg21
S'/home/defaultuser/Music'
p2665
sg23
F1521192121.4384699
sg24
I0
sg25
S'a39a766d33c77eaee73957e34334d302c1b7b01a'
p2666
sg27
I01
sg28
I00
sg29
I00
sg30
(lp2667
(dp2668
S'send_stats'
p2669
I01
sS'fails'
p2670
I0
sS'verified'
p2671
I00
sS'scrape_incomplete'
p2672
I-1
sS'min_announce'
p2673
NsS'scrape_downloaded'
p2674
I-1
sS'url'
p2675
S'http://bt3.t-ru.org/ann'
p2676
sS'last_error'
p2677
(dp2678
S'category'
p2679
S'system'
p2680
sS'value'
p2681
I0
ssS'fail_limit'
p2682
I0
sS'next_announce'
p2683
NsS'complete_sent'
p2684
I00
sS'source'
p2685
I1
sS'trackerid'
p2686
S''
sS'start_sent'
p2687
I00
sS'tier'
p2688
I0
sS'scrape_complete'
p2689
I-1
sS'message'
p2690
S''
sS'updating'
p2691
I00
sa(dp2692
S'send_stats'
p2693
I01
sS'fails'
p2694
I0
sS'verified'
p2695
I00
sS'scrape_incomplete'
p2696
I-1
sS'min_announce'
p2697
NsS'scrape_downloaded'
p2698
I-1
sS'url'
p2699
S'http://retracker.local/announce'
p2700
sS'last_error'
p2701
(dp2702
S'category'
p2703
S'system'
p2704
sS'value'
p2705
I0
ssS'fail_limit'
p2706
I0
sS'next_announce'
p2707
NsS'complete_sent'
p2708
I00
sS'source'
p2709
I1
sS'trackerid'
p2710
S''
sS'start_sent'
p2711
I00
sS'tier'
p2712
I1
sS'scrape_complete'
p2713
I-1
sS'message'
p2714
S''
sS'updating'
p2715
I00
sasg56
Nsg57
I00
sg58
F2
sg59
I00
sba(ideluge.core.torrentmanager
TorrentState
p2716
(dp2717
g7
F-1
sg8
S'/home/defaultuser/Downloads'
p2718
sg10
I01
sg11
I-1
sg12
I00
sg13
I-1
sg14
I00
sg15
I29
sg16
(lp2719
I0
aI0
aI0
aI0
aI0
aI0
aI0
aI0
aI0
aI0
aI0
aI0
aI0
aI0
aI0
aI0
aI0
aI0
aI0
aI0
aI0
aI0
aI0
aI0
aI0
aI0
aI0
aI0
aI0
aI1
aI1
aI1
aI1
aI1
aI1
aI1
aI1
aI1
aI1
aI1
aI1
aI1
aI1
aI1
aI1
aI1
aI1
aI1
aI0
aI0
aI0
aI0
aI0
aI0
aI0
aI0
aI0
aI0
aI0
aI0
aI0
aI0
aI0
aI0
aI0
aI0
aI0
aI0
aI0
aI0
aI0
aI0
aI0
aI0
aI0
aI0
aI0
aI0
aI0
aI0
aI0
aI0
aI0
aI0
aI0
aI0
aI0
aI0
aI0
aI0
aI0
aI0
aI0
aI0
aI0
aI0
aI0
aI0
aI0
aI0
aI0
aI0
aI0
aI0
aI0
aI0
aI0
aI0
aI0
aI0
aI0
aI0
aI0
aI0
aI0
aI0
aI0
aI0
aI0
aI0
aI0
aI0
aI0
aI0
aI0
aI0
aI0
aI0
aI0
aI0
aI0
aI0
asg18
S'(Synthpop, Synthwave, New Wave, Electro, Dreamwave, Post-Punk) [WEB] Trevor Something (\xe3\x83\x88\xe3\x83\xac\xe3\x83\x90\xe3\x83\xbc\xe4\xbd\x95\xe3\x81\x8b Hibachi Kid) - Collection (8 album [rutracker-4811234].torrent'
p2720
sg20
F-1
sg21
S'/home/defaultuser/Music'
p2721
sg23
F1521144784.83723
sg24
I0
sg25
S'6b77ad921541873b54b08f7c9bf8e9b97609c024'
p2722
sg27
I01
sg28
I00
sg29
I00
sg30
(lp2723
(dp2724
S'send_stats'
p2725
I01
sS'fails'
p2726
I0
sS'verified'
p2727
I00
sS'scrape_incomplete'
p2728
I-1
sS'min_announce'
p2729
NsS'source'
p2730
I2
sS'url'
p2731
S'http://bt.t-ru.org/ann'
p2732
sS'last_error'
p2733
(dp2734
S'category'
p2735
S'system'
p2736
sS'value'
p2737
I0
ssS'fail_limit'
p2738
I0
sS'next_announce'
p2739
NsS'complete_sent'
p2740
I00
sS'scrape_downloaded'
p2741
I-1
sS'trackerid'
p2742
S''
sS'start_sent'
p2743
I00
sS'tier'
p2744
I0
sS'scrape_complete'
p2745
I-1
sS'message'
p2746
S''
sS'updating'
p2747
I00
sa(dp2748
S'send_stats'
p2749
I01
sS'fails'
p2750
I0
sS'verified'
p2751
I00
sS'scrape_incomplete'
p2752
I-1
sS'min_announce'
p2753
NsS'source'
p2754
I2
sS'url'
p2755
S'http://retracker.local/announce'
p2756
sS'last_error'
p2757
(dp2758
S'category'
p2759
S'system'
p2760
sS'value'
p2761
I0
ssS'fail_limit'
p2762
I0
sS'next_announce'
p2763
NsS'complete_sent'
p2764
I00
sS'scrape_downloaded'
p2765
I-1
sS'trackerid'
p2766
S''
sS'start_sent'
p2767
I00
sS'tier'
p2768
I1
sS'scrape_complete'
p2769
I-1
sS'message'
p2770
S''
sS'updating'
p2771
I00
sasg56
Nsg57
I00
sg58
F2
sg59
I00
sba(ideluge.core.torrentmanager
TorrentState
p2772
(dp2773
g7
F-1
sg8
S'/home/defaultuser/Downloads'
p2774
sg10
I01
sg11
I-1
sg12
I00
sg13
I-1
sg14
I00
sg15
I-1
sg16
(lp2775
I4
aI4
aI4
aI4
asg18
S'10dd620d9b711e1e2cc189f29015f705ce568548'
p2776
sg20
F-1
sg21
S'/home/win/e'
p2777
sg23
F1517782056.9978149
sg24
I0
sg25
S'10dd620d9b711e1e2cc189f29015f705ce568548'
p2778
sg27
I01
sg28
I00
sg29
I00
sg30
(lp2779
sg56
Nsg57
I00
sg58
F2
sg59
I01
sba(ideluge.core.torrentmanager
TorrentState
p2780
(dp2781
g7
F-1
sg8
S'/home/defaultuser/Downloads'
p2782
sg10
I01
sg11
I-1
sg12
I00
sg13
I-1
sg14
I00
sg15
I46
sg16
(lp2783
I1
aI1
aI1
aI1
aI1
aI1
aI1
aI1
aI1
aI1
aI1
aI1
aI1
aI1
aI1
aI1
aI1
aI1
aI1
aI1
aI1
aI1
aI1
aI1
aI1
aI1
aI1
aI1
aI1
aI1
aI1
aI1
aI1
asg18
S'(Electronic, Synth Pop, New Retro) [CD] Scandroid - Scandroid - 2016, FLAC (tracks+.cue), lossless [rutracker-5321718].torrent'
p2784
sg20
F-1
sg21
S'/home/defaultuser/Music'
p2785
sg23
F1521191994.254638
sg24
I0
sg25
S'dd91fc9a6913071eb887a38158ff1e2216f41309'
p2786
sg27
I01
sg28
I00
sg29
I00
sg30
(lp2787
(dp2788
S'send_stats'
p2789
I01
sS'fails'
p2790
I0
sS'verified'
p2791
I00
sS'scrape_incomplete'
p2792
I-1
sS'min_announce'
p2793
NsS'scrape_downloaded'
p2794
I-1
sS'url'
p2795
S'http://bt2.t-ru.org/ann'
p2796
sS'last_error'
p2797
(dp2798
S'category'
p2799
S'system'
p2800
sS'value'
p2801
I0
ssS'fail_limit'
p2802
I0
sS'next_announce'
p2803
NsS'complete_sent'
p2804
I00
sS'source'
p2805
I1
sS'trackerid'
p2806
S''
sS'start_sent'
p2807
I00
sS'tier'
p2808
I0
sS'scrape_complete'
p2809
I-1
sS'message'
p2810
S''
sS'updating'
p2811
I00
sa(dp2812
S'send_stats'
p2813
I01
sS'fails'
p2814
I0
sS'verified'
p2815
I00
sS'scrape_incomplete'
p2816
I-1
sS'min_announce'
p2817
NsS'scrape_downloaded'
p2818
I-1
sS'url'
p2819
S'http://retracker.local/announce'
p2820
sS'last_error'
p2821
(dp2822
S'category'
p2823
S'system'
p2824
sS'value'
p2825
I0
ssS'fail_limit'
p2826
I0
sS'next_announce'
p2827
NsS'complete_sent'
p2828
I00
sS'source'
p2829
I1
sS'trackerid'
p2830
S''
sS'start_sent'
p2831
I00
sS'tier'
p2832
I1
sS'scrape_complete'
p2833
I-1
sS'message'
p2834
S''
sS'updating'
p2835
I00
sasg56
Nsg57
I00
sg58
F2
sg59
I00
sba(ideluge.core.torrentmanager
TorrentState
p2836
(dp2837
g7
F-1
sg8
S'/home/defaultuser/Downloads'
p2838
sg10
I01
sg11
I-1
sg12
I00
sg13
I-1
sg14
I00
sg15
I7
sg16
(lp2839
I4
asg18
S'6e70996a02ba28bd1518eb88b5be14e0c7648050'
p2840
sg20
F-1
sg21
S'/home/win/e/Music'
p2841
sg23
F1526400841.167413
sg24
I310457391
sg25
S'6e70996a02ba28bd1518eb88b5be14e0c7648050'
p2842
sg27
I01
sg28
I00
sg29
I00
sg30
(lp2843
(dp2844
S'send_stats'
p2845
I01
sS'fails'
p2846
I0
sS'verified'
p2847
I00
sS'scrape_incomplete'
p2848
I-1
sS'min_announce'
p2849
NsS'scrape_downloaded'
p2850
I-1
sS'url'
p2851
S'http://bt2.t-ru.org/ann?magnet'
p2852
sS'last_error'
p2853
(dp2854
S'category'
p2855
S'system'
p2856
sS'value'
p2857
I0
ssS'fail_limit'
p2858
I0
sS'next_announce'
p2859
NsS'complete_sent'
p2860
I00
sS'source'
p2861
I4
sS'trackerid'
p2862
S''
sS'start_sent'
p2863
I00
sS'tier'
p2864
I0
sS'scrape_complete'
p2865
I-1
sS'message'
p2866
S''
sS'updating'
p2867
I00
sasg56
Nsg57
I00
sg58
F2
sg59
I01
sba(ideluge.core.torrentmanager
TorrentState
p2868
(dp2869
g7
F-1
sg8
S'/home/defaultuser/Downloads'
p2870
sg10
I00
sg11
I-1
sg12
I00
sg13
I-1
sg14
I00
sg15
I6
sg16
(lp2871
I0
aI1
aI0
aI0
aI0
aI1
asg18
S'48025fad82c735065f32192e83a24ce8a04e7587'
p2872
sg20
F-1
sg21
S'/home/win/e/Music'
p2873
sg23
F1526397458.9579971
sg24
I987310701
sg25
S'48025fad82c735065f32192e83a24ce8a04e7587'
p2874
sg27
I01
sg28
I00
sg29
I00
sg30
(lp2875
(dp2876
S'send_stats'
p2877
I01
sS'fails'
p2878
I0
sS'verified'
p2879
I00
sS'scrape_incomplete'
p2880
I-1
sS'min_announce'
p2881
NsS'scrape_downloaded'
p2882
I-1
sS'url'
p2883
S'http://bt.t-ru.org/ann?magnet'
p2884
sS'last_error'
p2885
(dp2886
S'category'
p2887
S'system'
p2888
sS'value'
p2889
I0
ssS'fail_limit'
p2890
I0
sS'next_announce'
p2891
NsS'complete_sent'
p2892
I00
sS'source'
p2893
I4
sS'trackerid'
p2894
S''
sS'start_sent'
p2895
I00
sS'tier'
p2896
I0
sS'scrape_complete'
p2897
I-1
sS'message'
p2898
S''
sS'updating'
p2899
I00
sasg56
Nsg57
I00
sg58
F2
sg59
I01
sba(ideluge.core.torrentmanager
TorrentState
p2900
(dp2901
g7
F-1
sg8
S'/home/defaultuser/Downloads'
p2902
sg10
I01
sg11
I-1
sg12
I00
sg13
I-1
sg14
I00
sg15
I40
sg16
(lp2903
I1
aI1
aI1
aI1
aI1
aI1
aI1
aI1
aI1
aI1
aI1
aI1
aI1
aI1
asg18
S'(Synthwave, Vaporwave, Chillwave, Experimental) [WEB] HOME - Odyssey - 2014, FLAC (tracks), lossless [rutracker-5523112].torrent'
p2904
sg20
F-1
sg21
S'/home/defaultuser/Music'
p2905
sg23
F1521191953.694874
sg24
I3653632
sg25
S'9b8d57a719bc678de0e0ad4af0f804f92f9783d8'
p2906
sg27
I01
sg28
I00
sg29
I00
sg30
(lp2907
(dp2908
S'send_stats'
p2909
I01
sS'fails'
p2910
I0
sS'verified'
p2911
I00
sS'scrape_incomplete'
p2912
I-1
sS'min_announce'
p2913
NsS'scrape_downloaded'
p2914
I-1
sS'url'
p2915
S'http://bt3.t-ru.org/ann'
p2916
sS'last_error'
p2917
(dp2918
S'category'
p2919
S'system'
p2920
sS'value'
p2921
I0
ssS'fail_limit'
p2922
I0
sS'next_announce'
p2923
NsS'complete_sent'
p2924
I00
sS'source'
p2925
I1
sS'trackerid'
p2926
S''
sS'start_sent'
p2927
I00
sS'tier'
p2928
I0
sS'scrape_complete'
p2929
I-1
sS'message'
p2930
S''
sS'updating'
p2931
I00
sa(dp2932
S'send_stats'
p2933
I01
sS'fails'
p2934
I0
sS'verified'
p2935
I00
sS'scrape_incomplete'
p2936
I-1
sS'min_announce'
p2937
NsS'scrape_downloaded'
p2938
I-1
sS'url'
p2939
S'http://retracker.local/announce'
p2940
sS'last_error'
p2941
(dp2942
S'category'
p2943
S'system'
p2944
sS'value'
p2945
I0
ssS'fail_limit'
p2946
I0
sS'next_announce'
p2947
NsS'complete_sent'
p2948
I00
sS'source'
p2949
I1
sS'trackerid'
p2950
S''
sS'start_sent'
p2951
I00
sS'tier'
p2952
I1
sS'scrape_complete'
p2953
I-1
sS'message'
p2954
S''
sS'updating'
p2955
I00
sasg56
Nsg57
I00
sg58
F2
sg59
I00
sba(ideluge.core.torrentmanager
TorrentState
p2956
(dp2957
g7
F-1
sg8
S'/home/defaultuser/Downloads'
p2958
sg10
I01
sg11
I-1
sg12
I00
sg13
I-1
sg14
I00
sg15
I31
sg16
(lp2959
I1
aI1
aI1
aI1
aI1
aI1
aI1
aI1
aI1
aI1
aI0
aI0
aI0
aI0
aI0
aI0
aI1
aI1
aI1
aI1
aI1
aI1
aI1
aI1
aI0
aI1
aI1
aI1
aI1
aI1
aI1
aI1
aI1
aI1
aI1
aI1
aI1
aI1
aI1
aI1
asg18
S'b48f4e03b48d07887b093737243da3100e6b39d0'
p2960
sg20
F-1
sg21
S'/home/win/e'
p2961
sg23
F1519391116.270895
sg24
I81920
sg25
S'b48f4e03b48d07887b093737243da3100e6b39d0'
p2962
sg27
I01
sg28
I00
sg29
I00
sg30
(lp2963
(dp2964
S'send_stats'
p2965
I01
sS'fails'
p2966
I0
sS'verified'
p2967
I00
sS'scrape_incomplete'
p2968
I-1
sS'min_announce'
p2969
NsS'scrape_downloaded'
p2970
I-1
sS'url'
p2971
S'http://nyaa.tracker.wf:7777/announce'
p2972
sS'last_error'
p2973
(dp2974
S'category'
p2975
S'system'
p2976
sS'value'
p2977
I0
ssS'fail_limit'
p2978
I0
sS'next_announce'
p2979
NsS'complete_sent'
p2980
I00
sS'source'
p2981
I4
sS'trackerid'
p2982
S''
sS'start_sent'
p2983
I00
sS'tier'
p2984
I0
sS'scrape_complete'
p2985
I-1
sS'message'
p2986
S''
sS'updating'
p2987
I00
sa(dp2988
S'send_stats'
p2989
I01
sS'fails'
p2990
I0
sS'verified'
p2991
I00
sS'scrape_incomplete'
p2992
I-1
sS'min_announce'
p2993
NsS'scrape_downloaded'
p2994
I-1
sS'url'
p2995
S'udp://open.stealth.si:80/announce'
p2996
sS'last_error'
p2997
(dp2998
S'category'
p2999
S'system'
p3000
sS'value'
p3001
I0
ssS'fail_limit'
p3002
I0
sS'next_announce'
p3003
NsS'complete_sent'
p3004
I00
sS'source'
p3005
I4
sS'trackerid'
p3006
S''
sS'start_sent'
p3007
I00
sS'tier'
p3008
I1
sS'scrape_complete'
p3009
I-1
sS'message'
p3010
S''
sS'updating'
p3011
I00
sa(dp3012
S'send_stats'
p3013
I01
sS'fails'
p3014
I0
sS'verified'
p3015
I00
sS'scrape_incomplete'
p3016
I-1
sS'min_announce'
p3017
NsS'scrape_downloaded'
p3018
I-1
sS'url'
p3019
S'udp://tracker.opentrackr.org:1337/announce'
p3020
sS'last_error'
p3021
(dp3022
S'category'
p3023
S'system'
p3024
sS'value'
p3025
I0
ssS'fail_limit'
p3026
I0
sS'next_announce'
p3027
NsS'complete_sent'
p3028
I00
sS'source'
p3029
I4
sS'trackerid'
p3030
S''
sS'start_sent'
p3031
I00
sS'tier'
p3032
I2
sS'scrape_complete'
p3033
I-1
sS'message'
p3034
S''
sS'updating'
p3035
I00
sa(dp3036
S'send_stats'
p3037
I01
sS'fails'
p3038
I0
sS'verified'
p3039
I00
sS'scrape_incomplete'
p3040
I-1
sS'min_announce'
p3041
NsS'scrape_downloaded'
p3042
I-1
sS'url'
p3043
S'udp://tracker.coppersurfer.tk:6969/announce'
p3044
sS'last_error'
p3045
(dp3046
S'category'
p3047
S'system'
p3048
sS'value'
p3049
I0
ssS'fail_limit'
p3050
I0
sS'next_announce'
p3051
NsS'complete_sent'
p3052
I00
sS'source'
p3053
I4
sS'trackerid'
p3054
S''
sS'start_sent'
p3055
I00
sS'tier'
p3056
I3
sS'scrape_complete'
p3057
I-1
sS'message'
p3058
S''
sS'updating'
p3059
I00
sa(dp3060
S'send_stats'
p3061
I01
sS'fails'
p3062
I0
sS'verified'
p3063
I00
sS'scrape_incomplete'
p3064
I-1
sS'min_announce'
p3065
NsS'scrape_downloaded'
p3066
I-1
sS'url'
p3067
S'udp://tracker.leechers-paradise.org:6969/announce'
p3068
sS'last_error'
p3069
(dp3070
S'category'
p3071
S'system'
p3072
sS'value'
p3073
I0
ssS'fail_limit'
p3074
I0
sS'next_announce'
p3075
NsS'complete_sent'
p3076
I00
sS'source'
p3077
I4
sS'trackerid'
p3078
S''
sS'start_sent'
p3079
I00
sS'tier'
p3080
I4
sS'scrape_complete'
p3081
I-1
sS'message'
p3082
S''
sS'updating'
p3083
I00
sasg56
Nsg57
I00
sg58
F2
sg59
I00
sba(ideluge.core.torrentmanager
TorrentState
p3084
(dp3085
g7
F-1
sg8
S'/home/defaultuser/Downloads'
p3086
sg10
I01
sg11
I-1
sg12
I00
sg13
I-1
sg14
I00
sg15
I36
sg16
(lp3087
I1
aI1
aI1
aI1
aI1
aI1
aI1
aI1
aI1
aI1
aI1
aI1
aI1
aI1
aI1
aI1
aI1
aI1
aI1
aI1
aI1
aI1
aI1
aI1
aI1
aI1
aI1
aI1
aI1
aI1
aI1
aI1
aI1
aI1
aI1
aI1
aI1
aI1
aI1
aI1
aI1
aI1
asg18
S'(Score Electronic, Orchestral, Space) FTL (Faster Than Light) Original & Advanced Edition (by Ben Prunty) - 2012, 2014 {WEB}, FL [rutracker-4174393].torrent'
p3088
sg20
F-1
sg21
S'/home/defaultuser/Music'
p3089
sg23
F1521192001.9426
sg24
I0
sg25
S'9d4b11253fecf51936348e6ed7176468e87bb39e'
p3090
sg27
I01
sg28
I00
sg29
I00
sg30
(lp3091
(dp3092
S'send_stats'
p3093
I01
sS'fails'
p3094
I0
sS'verified'
p3095
I00
sS'scrape_incomplete'
p3096
I-1
sS'min_announce'
p3097
NsS'scrape_downloaded'
p3098
I-1
sS'url'
p3099
S'http://bt3.t-ru.org/ann'
p3100
sS'last_error'
p3101
(dp3102
S'category'
p3103
S'system'
p3104
sS'value'
p3105
I0
ssS'fail_limit'
p3106
I0
sS'next_announce'
p3107
NsS'complete_sent'
p3108
I00
sS'source'
p3109
I1
sS'trackerid'
p3110
S''
sS'start_sent'
p3111
I00
sS'tier'
p3112
I0
sS'scrape_complete'
p3113
I-1
sS'message'
p3114
S''
sS'updating'
p3115
I00
sa(dp3116
S'send_stats'
p3117
I01
sS'fails'
p3118
I0
sS'verified'
p3119
I00
sS'scrape_incomplete'
p3120
I-1
sS'min_announce'
p3121
NsS'scrape_downloaded'
p3122
I-1
sS'url'
p3123
S'http://retracker.local/announce'
p3124
sS'last_error'
p3125
(dp3126
S'category'
p3127
S'system'
p3128
sS'value'
p3129
I0
ssS'fail_limit'
p3130
I0
sS'next_announce'
p3131
NsS'complete_sent'
p3132
I00
sS'source'
p3133
I1
sS'trackerid'
p3134
S''
sS'start_sent'
p3135
I00
sS'tier'
p3136
I1
sS'scrape_complete'
p3137
I-1
sS'message'
p3138
S''
sS'updating'
p3139
I00
sasg56
Nsg57
I00
sg58
F2
sg59
I00
sba(ideluge.core.torrentmanager
TorrentState
p3140
(dp3141
g7
F-1
sg8
S'/home/defaultuser/Downloads'
p3142
sg10
I00
sg11
I-1
sg12
I00
sg13
I-1
sg14
I00
sg15
I15
sg16
(lp3143
I0
aI0
aI0
aI0
aI0
aI0
aI0
aI0
aI0
aI0
aI0
aI1
aI1
asg18
S'\xd0\x92\xd0\xbe \xd0\xb2\xd1\x81\xd0\xb5 \xd1\x82\xd1\x8f\xd0\xb6\xd0\xba\xd0\xb8\xd0\xb5 Breaking Bad \xd0\xa1\xd0\xb5\xd0\xb7\xd0\xbe\xd0\xbd 4 \xd0\xa1\xd0\xb5\xd1\x80\xd0\xb8\xd0\xb8 1-13 (13) (\xd0\x92\xd0\xb8\xd0\xbd\xd1\x81 \xd0\x93\xd0\xb8\xd0\xbb\xd0\xbb\xd0\xb8\xd0\xb3\xd0\xb0\xd0\xbd, \xd0\x90\xd0\xb4\xd0\xb0\xd0\xbc \xd0\x91\xd0\xb5\xd1\x80\xd0\xbd\xd1\x81\xd1\x82\xd0\xb0\xd0\xb9\xd0\xbd) [2011, \xd0\xa1\xd0\xa8\xd0\x90, \xd0\xb4\xd1\x80\xd0\xb0\xd0\xbc\xd0\xb0, \xd0\xba\xd1\x80\xd0\xb8\xd0\xbc\xd0\xb8\xd0\xbd\xd0\xb0\xd0\xbb, BDRip 720p [rutracker-5199869].torrent'
p3144
sg20
F-1
sg21
S'/home/win/e'
p3145
sg23
F1522364353.0801909
sg24
I1888274984
sg25
S'6dd5a5e5d1c161afab04488865d6d0c0e9a7585c'
p3146
sg27
I01
sg28
I00
sg29
I00
sg30
(lp3147
(dp3148
S'send_stats'
p3149
I01
sS'fails'
p3150
I0
sS'verified'
p3151
I00
sS'scrape_incomplete'
p3152
I-1
sS'min_announce'
p3153
NsS'source'
p3154
I1
sS'url'
p3155
S'http://bt.t-ru.org/ann'
p3156
sS'last_error'
p3157
(dp3158
S'category'
p3159
S'system'
p3160
sS'value'
p3161
I0
ssS'fail_limit'
p3162
I0
sS'next_announce'
p3163
NsS'complete_sent'
p3164
I00
sS'scrape_downloaded'
p3165
I-1
sS'trackerid'
p3166
S''
sS'start_sent'
p3167
I00
sS'tier'
p3168
I0
sS'scrape_complete'
p3169
I-1
sS'message'
p3170
S''
sS'updating'
p3171
I00
sa(dp3172
S'send_stats'
p3173
I01
sS'fails'
p3174
I0
sS'verified'
p3175
I00
sS'scrape_incomplete'
p3176
I-1
sS'min_announce'
p3177
NsS'source'
p3178
I1
sS'url'
p3179
S'http://retracker.local/announce'
p3180
sS'last_error'
p3181
(dp3182
S'category'
p3183
S'system'
p3184
sS'value'
p3185
I0
ssS'fail_limit'
p3186
I0
sS'next_announce'
p3187
NsS'complete_sent'
p3188
I00
sS'scrape_downloaded'
p3189
I-1
sS'trackerid'
p3190
S''
sS'start_sent'
p3191
I00
sS'tier'
p3192
I1
sS'scrape_complete'
p3193
I-1
sS'message'
p3194
S''
sS'updating'
p3195
I00
sasg56
Nsg57
I00
sg58
F2
sg59
I01
sba(ideluge.core.torrentmanager
TorrentState
p3196
(dp3197
g7
F-1
sg8
S'/home/defaultuser/Downloads'
p3198
sg10
I01
sg11
I-1
sg12
I00
sg13
I-1
sg14
I00
sg15
I30
sg16
(lp3199
I0
aI0
aI0
aI1
aI0
aI0
aI0
aI0
aI0
aI0
aI0
aI0
aI0
aI0
aI0
aI0
aI0
aI0
aI0
aI0
aI0
aI0
aI0
aI0
aI0
aI0
aI0
aI0
aI0
aI0
aI0
aI0
aI0
aI0
aI0
aI0
aI0
aI0
aI0
aI0
aI0
aI0
aI0
aI0
aI0
aI0
aI0
aI0
aI0
aI0
aI0
aI0
aI0
aI0
aI0
aI0
aI0
aI0
aI0
aI0
aI0
aI0
aI0
aI0
aI0
aI0
aI0
aI0
aI0
aI0
aI0
aI0
aI0
aI0
aI0
aI0
aI0
aI0
asg18
S'\xd0\x90\xd0\xbd\xd1\x82\xd0\xb8 \xd0\x93\xd0\xbe\xd0\xbb\xd0\xbe\xd0\xb4 \xd0\x90\xd0\xba\xd0\xb2\xd0\xb0 \xd0\x9c\xd0\xbe\xd0\xbb\xd0\xbe\xd0\xb4\xd1\x8c \xd0\x90\xd0\xba\xd0\xb2\xd0\xb0 \xd0\xa2\xd0\xb8\xd0\xbd \xd0\xa5\xd0\xb0\xd0\xbd\xd0\xb3\xd0\xb5\xd1\x80 \xd0\xa4\xd0\xbe\xd1\x80\xd1\x81 (\xd0\x9a\xd0\xbe\xd0\xbc\xd0\xb0\xd0\xbd\xd0\xb4\xd0\xb0 \xd0\xa4\xd0\xb0\xd1\x81\xd1\x82\xd1\x84\xd1\x83\xd0\xb4) Aqua Teen Hunger Force ATHF \xd0\xa1\xd0\xb5\xd0\xb7\xd0\xbe\xd0\xbd 1-5 (\xd0\x9c\xd1\x8d\xd1\x82\xd1\x82 \xd0\x9c\xd0\xb5\xd0\xb9\xd0\xbb\xd0\xb0\xd1\x80\xd0\xb8\xd0\xbe Matt [rutracker-3574106].torrent'
p3200
sg20
F-1
sg21
S'/home/defaultuser/Music'
p3201
sg23
F1521198789.33725
sg24
I0
sg25
S'fbda0c33cba6fcb65659d6b185aaccf1df3d783b'
p3202
sg27
I01
sg28
I00
sg29
I00
sg30
(lp3203
(dp3204
S'send_stats'
p3205
I01
sS'fails'
p3206
I0
sS'verified'
p3207
I00
sS'scrape_incomplete'
p3208
I-1
sS'min_announce'
p3209
NsS'source'
p3210
I2
sS'url'
p3211
S'http://bt2.t-ru.org/ann'
p3212
sS'last_error'
p3213
(dp3214
S'category'
p3215
S'system'
p3216
sS'value'
p3217
I0
ssS'fail_limit'
p3218
I0
sS'next_announce'
p3219
NsS'complete_sent'
p3220
I00
sS'scrape_downloaded'
p3221
I-1
sS'trackerid'
p3222
S''
sS'start_sent'
p3223
I00
sS'tier'
p3224
I0
sS'scrape_complete'
p3225
I-1
sS'message'
p3226
S''
sS'updating'
p3227
I00
sa(dp3228
S'send_stats'
p3229
I01
sS'fails'
p3230
I0
sS'verified'
p3231
I00
sS'scrape_incomplete'
p3232
I-1
sS'min_announce'
p3233
NsS'source'
p3234
I2
sS'url'
p3235
S'http://retracker.local/announce'
p3236
sS'last_error'
p3237
(dp3238
S'category'
p3239
S'system'
p3240
sS'value'
p3241
I0
ssS'fail_limit'
p3242
I0
sS'next_announce'
p3243
NsS'complete_sent'
p3244
I00
sS'scrape_downloaded'
p3245
I-1
sS'trackerid'
p3246
S''
sS'start_sent'
p3247
I00
sS'tier'
p3248
I1
sS'scrape_complete'
p3249
I-1
sS'message'
p3250
S''
sS'updating'
p3251
I00
sasg56
Nsg57
I00
sg58
F2
sg59
I00
sba(ideluge.core.torrentmanager
TorrentState
p3252
(dp3253
g7
F-1
sg8
S'/home/defaultuser/Downloads'
p3254
sg10
I01
sg11
I-1
sg12
I00
sg13
I-1
sg14
I00
sg15
I45
sg16
(lp3255
I4
aI4
aI4
aI4
aI4
aI4
aI4
aI4
aI4
aI4
aI4
aI4
aI4
aI4
aI4
aI4
aI4
aI4
aI4
aI4
aI4
aI4
aI4
aI4
aI4
aI4
aI4
aI4
aI4
aI4
aI4
aI4
aI4
aI4
aI4
aI4
aI4
aI4
aI4
aI4
aI4
aI4
aI4
aI4
aI4
aI4
aI4
aI4
aI4
aI4
aI4
aI4
aI4
aI4
aI4
asg18
S'ec828b64c2915794596f1ce95b990cf83eb0fec1'
p3256
sg20
F-1
sg21
S'/home/defaultuser/Music'
p3257
sg23
F1521134360.154067
sg24
I0
sg25
S'ec828b64c2915794596f1ce95b990cf83eb0fec1'
p3258
sg27
I01
sg28
I00
sg29
I00
sg30
(lp3259
(dp3260
S'send_stats'
p3261
I01
sS'fails'
p3262
I0
sS'verified'
p3263
I00
sS'scrape_incomplete'
p3264
I-1
sS'min_announce'
p3265
NsS'source'
p3266
I4
sS'url'
p3267
S'http://bt4.t-ru.org/ann?magnet'
p3268
sS'last_error'
p3269
(dp3270
S'category'
p3271
S'system'
p3272
sS'value'
p3273
I0
ssS'fail_limit'
p3274
I0
sS'next_announce'
p3275
NsS'complete_sent'
p3276
I00
sS'scrape_downloaded'
p3277
I-1
sS'trackerid'
p3278
S''
sS'start_sent'
p3279
I00
sS'tier'
p3280
I0
sS'scrape_complete'
p3281
I-1
sS'message'
p3282
S''
sS'updating'
p3283
I00
sasg56
Nsg57
I00
sg58
F2
sg59
I00
sba(ideluge.core.torrentmanager
TorrentState
p3284
(dp3285
g7
F-1
sg8
S'/home/defaultuser/Downloads'
p3286
sg10
I01
sg11
I-1
sg12
I00
sg13
I-1
sg14
I00
sg15
I52
sg16
(lp3287
I1
aI0
aI0
aI0
aI0
aI0
aI0
aI0
aI0
aI0
aI0
aI0
aI1
asg18
S'\xd0\x92\xd0\xbe \xd0\xb2\xd1\x81\xd0\xb5 \xd1\x82\xd1\x8f\xd0\xb6\xd0\xba\xd0\xb8\xd0\xb5 Breaking Bad \xd0\xa1\xd0\xb5\xd0\xb7\xd0\xbe\xd0\xbd 2 \xd0\xa1\xd0\xb5\xd1\x80\xd0\xb8\xd0\xb8 1-13 (13) (\xd0\x90\xd0\xb4\xd0\xb0\xd0\xbc \xd0\x91\xd0\xb5\xd1\x80\xd0\xbd\xd1\x88\xd1\x82\xd0\xb5\xd0\xb9\xd0\xbd) [2011, \xd0\xa1\xd0\xa8\xd0\x90, \xd0\xba\xd1\x80\xd0\xb8\xd0\xbc\xd0\xb8\xd0\xbd\xd0\xb0\xd0\xbb\xd1\x8c\xd0\xbd\xd0\xb0\xd1\x8f \xd0\xb4\xd1\x80\xd0\xb0\xd0\xbc\xd0\xb0, WEB-DLRip] DVO (\xd0\x9a\xd1\x83\xd0\xb1\xd0\xb8\xd0\xba [rutracker-3665399].torrent'
p3288
sg20
F-1
sg21
S'/home/defaultuser/Downloads'
p3289
sg23
F1521746016.290432
sg24
I0
sg25
S'8c4fde96dd1e05a0e9e56a9d5de3f2e773e026a0'
p3290
sg27
I01
sg28
I00
sg29
I00
sg30
(lp3291
(dp3292
S'send_stats'
p3293
I01
sS'fails'
p3294
I0
sS'verified'
p3295
I00
sS'scrape_incomplete'
p3296
I-1
sS'min_announce'
p3297
NsS'scrape_downloaded'
p3298
I-1
sS'url'
p3299
S'http://bt2.t-ru.org/ann'
p3300
sS'last_error'
p3301
(dp3302
S'category'
p3303
S'system'
p3304
sS'value'
p3305
I0
ssS'fail_limit'
p3306
I0
sS'next_announce'
p3307
NsS'complete_sent'
p3308
I00
sS'source'
p3309
I1
sS'trackerid'
p3310
S''
sS'start_sent'
p3311
I00
sS'tier'
p3312
I0
sS'scrape_complete'
p3313
I-1
sS'message'
p3314
S''
sS'updating'
p3315
I00
sa(dp3316
S'send_stats'
p3317
I01
sS'fails'
p3318
I0
sS'verified'
p3319
I00
sS'scrape_incomplete'
p3320
I-1
sS'min_announce'
p3321
NsS'scrape_downloaded'
p3322
I-1
sS'url'
p3323
S'http://retracker.local/announce'
p3324
sS'last_error'
p3325
(dp3326
S'category'
p3327
S'system'
p3328
sS'value'
p3329
I0
ssS'fail_limit'
p3330
I0
sS'next_announce'
p3331
NsS'complete_sent'
p3332
I00
sS'source'
p3333
I1
sS'trackerid'
p3334
S''
sS'start_sent'
p3335
I00
sS'tier'
p3336
I1
sS'scrape_complete'
p3337
I-1
sS'message'
p3338
S''
sS'updating'
p3339
I00
sasg56
Nsg57
I00
sg58
F2
sg59
I00
sba(ideluge.core.torrentmanager
TorrentState
p3340
(dp3341
g7
F-1
sg8
S'/home/defaultuser/Downloads'
p3342
sg10
I01
sg11
I-1
sg12
I00
sg13
I-1
sg14
I00
sg15
I48
sg16
(lp3343
I0
aI0
aI0
aI0
aI0
aI0
aI0
aI0
aI0
aI0
aI0
aI0
aI0
aI0
aI0
aI0
aI0
aI0
aI0
aI0
aI0
aI0
aI0
aI0
aI0
aI0
aI0
aI0
aI0
aI0
aI0
aI0
aI0
aI0
aI0
aI0
aI0
aI0
aI0
aI0
aI0
aI0
aI0
aI0
aI0
aI0
aI0
aI0
aI0
aI0
aI0
aI0
aI0
aI0
aI0
aI0
aI0
aI0
aI0
aI0
aI0
aI0
aI0
aI0
aI0
aI0
aI0
aI0
aI0
aI0
aI0
aI0
aI0
aI0
aI0
aI0
aI0
aI0
aI0
aI0
aI0
aI0
aI0
aI0
aI0
aI0
aI0
aI0
aI0
aI0
aI0
aI0
aI0
aI0
aI0
aI0
aI0
aI0
aI0
aI0
aI0
aI0
aI0
aI0
aI0
aI0
aI0
aI0
aI0
aI0
aI0
aI0
aI0
aI0
aI0
aI0
aI0
aI0
aI0
aI0
aI0
aI0
aI0
aI0
aI0
aI0
aI0
aI0
aI0
aI0
aI0
aI0
aI0
aI0
aI0
aI0
aI0
aI0
aI0
aI0
aI0
aI0
aI0
aI0
aI0
aI0
aI0
aI0
aI0
aI0
aI0
aI0
aI0
aI0
aI0
aI0
aI0
aI0
aI0
aI0
aI0
aI0
aI0
aI0
aI0
aI0
aI0
aI0
aI0
aI0
aI0
aI0
aI0
aI0
aI0
aI0
aI0
aI0
aI0
aI0
aI0
aI0
aI0
aI0
aI0
aI0
aI0
aI0
aI0
aI0
aI0
aI0
aI0
aI0
aI0
aI0
aI0
aI0
aI0
aI0
aI0
aI0
aI0
aI0
aI0
aI0
aI0
aI0
aI0
aI0
aI0
aI0
aI0
aI0
aI0
aI0
aI0
aI0
aI0
aI0
aI0
aI0
aI0
aI0
aI0
aI0
aI0
aI0
aI0
aI0
aI0
aI0
aI0
aI0
aI0
aI0
aI0
aI0
aI0
aI0
aI0
aI0
aI0
aI0
aI0
aI0
aI0
aI0
aI0
aI0
aI0
aI0
aI0
aI0
aI0
aI0
aI0
aI0
aI0
aI0
aI0
aI0
aI0
aI0
aI0
aI0
aI0
aI0
aI0
aI0
aI0
aI0
aI0
aI0
aI0
aI0
aI0
aI0
aI0
aI0
aI0
aI0
aI0
aI0
aI0
aI0
aI0
aI0
aI0
aI0
aI0
aI0
aI0
aI0
aI0
aI0
aI0
aI0
aI0
aI0
aI0
aI0
aI0
aI0
aI0
aI0
aI0
aI0
aI0
aI0
aI0
aI1
aI1
aI1
aI1
aI1
aI1
aI1
aI1
aI1
aI1
aI1
aI1
aI1
aI1
aI1
aI1
aI1
aI1
aI1
asg18
S'(Black Metal,Dark Folk,Electronic,Experimental,Ambient,Soundtrack,Psychedelic,Art Rock) [CD,WEB] Ulver (w Troms\xc3\xb8 Chamber Orchestr [rutracker-5199507].torrent'
p3344
sg20
F-1
sg21
S'/home/defaultuser/Music'
p3345
sg23
F1521194536.9372301
sg24
I0
sg25
S'5af3f52ae149e78a316049adeed4090b2a577966'
p3346
sg27
I01
sg28
I00
sg29
I00
sg30
(lp3347
(dp3348
S'send_stats'
p3349
I01
sS'fails'
p3350
I0
sS'verified'
p3351
I00
sS'scrape_incomplete'
p3352
I-1
sS'min_announce'
p3353
NsS'scrape_downloaded'
p3354
I-1
sS'url'
p3355
S'http://bt.t-ru.org/ann'
p3356
sS'last_error'
p3357
(dp3358
S'category'
p3359
S'system'
p3360
sS'value'
p3361
I0
ssS'fail_limit'
p3362
I0
sS'next_announce'
p3363
NsS'complete_sent'
p3364
I00
sS'source'
p3365
I1
sS'trackerid'
p3366
S''
sS'start_sent'
p3367
I00
sS'tier'
p3368
I0
sS'scrape_complete'
p3369
I-1
sS'message'
p3370
S''
sS'updating'
p3371
I00
sa(dp3372
S'send_stats'
p3373
I01
sS'fails'
p3374
I0
sS'verified'
p3375
I00
sS'scrape_incomplete'
p3376
I-1
sS'min_announce'
p3377
NsS'scrape_downloaded'
p3378
I-1
sS'url'
p3379
S'http://retracker.local/announce'
p3380
sS'last_error'
p3381
(dp3382
S'category'
p3383
S'system'
p3384
sS'value'
p3385
I0
ssS'fail_limit'
p3386
I0
sS'next_announce'
p3387
NsS'complete_sent'
p3388
I00
sS'source'
p3389
I1
sS'trackerid'
p3390
S''
sS'start_sent'
p3391
I00
sS'tier'
p3392
I1
sS'scrape_complete'
p3393
I-1
sS'message'
p3394
S''
sS'updating'
p3395
I00
sasg56
Nsg57
I00
sg58
F2
sg59
I00
sba(ideluge.core.torrentmanager
TorrentState
p3396
(dp3397
g7
F-1
sg8
S'/home/defaultuser/Downloads'
p3398
sg10
I01
sg11
I-1
sg12
I00
sg13
I-1
sg14
I00
sg15
I39
sg16
(lp3399
I1
aI1
aI1
aI1
aI1
aI1
aI1
aI1
aI1
aI1
aI1
aI1
aI1
aI1
aI1
aI1
asg18
S'(Synthwave, Dreamwave) [CD] Gunship - Gunship - 2015, FLAC (tracks+.cue), lossless [rutracker-5205904].torrent'
p3400
sg20
F-1
sg21
S'/home/defaultuser/Music'
p3401
sg23
F1521191970.866925
sg24
I0
sg25
S'01856c887566d6bc3557b1f32c86e600cfcf7aca'
p3402
sg27
I01
sg28
I00
sg29
I00
sg30
(lp3403
(dp3404
S'send_stats'
p3405
I01
sS'fails'
p3406
I0
sS'verified'
p3407
I00
sS'scrape_incomplete'
p3408
I-1
sS'min_announce'
p3409
NsS'scrape_downloaded'
p3410
I-1
sS'url'
p3411
S'http://bt2.t-ru.org/ann'
p3412
sS'last_error'
p3413
(dp3414
S'category'
p3415
S'system'
p3416
sS'value'
p3417
I0
ssS'fail_limit'
p3418
I0
sS'next_announce'
p3419
NsS'complete_sent'
p3420
I00
sS'source'
p3421
I1
sS'trackerid'
p3422
S''
sS'start_sent'
p3423
I00
sS'tier'
p3424
I0
sS'scrape_complete'
p3425
I-1
sS'message'
p3426
S''
sS'updating'
p3427
I00
sa(dp3428
S'send_stats'
p3429
I01
sS'fails'
p3430
I0
sS'verified'
p3431
I00
sS'scrape_incomplete'
p3432
I-1
sS'min_announce'
p3433
NsS'scrape_downloaded'
p3434
I-1
sS'url'
p3435
S'http://retracker.local/announce'
p3436
sS'last_error'
p3437
(dp3438
S'category'
p3439
S'system'
p3440
sS'value'
p3441
I0
ssS'fail_limit'
p3442
I0
sS'next_announce'
p3443
NsS'complete_sent'
p3444
I00
sS'source'
p3445
I1
sS'trackerid'
p3446
S''
sS'start_sent'
p3447
I00
sS'tier'
p3448
I1
sS'scrape_complete'
p3449
I-1
sS'message'
p3450
S''
sS'updating'
p3451
I00
sasg56
Nsg57
I00
sg58
F2
sg59
I00
sba(ideluge.core.torrentmanager
TorrentState
p3452
(dp3453
g7
F-1
sg8
S'/home/defaultuser/Downloads'
p3454
sg10
I01
sg11
I-1
sg12
I00
sg13
I-1
sg14
I00
sg15
I21
sg16
(lp3455
I0
aI0
aI0
aI0
aI0
aI0
aI0
aI0
aI0
aI0
aI0
aI1
aI1
asg18
S'\xd0\x92\xd0\xbe \xd0\xb2\xd1\x81\xd0\xb5 \xd1\x82\xd1\x8f\xd0\xb6\xd0\xba\xd0\xb8\xd0\xb5 Breaking Bad \xd0\xa1\xd0\xb5\xd0\xb7\xd0\xbe\xd0\xbd 3 \xd0\xa1\xd0\xb5\xd1\x80\xd0\xb8\xd0\xb8 1-13 (13) (\xd0\x92\xd0\xb8\xd0\xbd\xd1\x81 \xd0\x93\xd0\xb8\xd0\xbb\xd0\xbb\xd0\xb8\xd0\xb3\xd0\xb0\xd0\xbd, \xd0\x90\xd0\xb4\xd0\xb0\xd0\xbc \xd0\x91\xd0\xb5\xd1\x80\xd0\xbd\xd1\x81\xd1\x82\xd0\xb0\xd0\xb9\xd0\xbd) [2010, \xd0\xa1\xd0\xa8\xd0\x90, \xd0\xb4\xd1\x80\xd0\xb0\xd0\xbc\xd0\xb0, \xd0\xba\xd1\x80\xd0\xb8\xd0\xbc\xd0\xb8\xd0\xbd\xd0\xb0\xd0\xbb, BDRip 720p [rutracker-5199843].torrent'
p3456
sg20
F-1
sg21
S'/home/win/e'
p3457
sg23
F1522090219.7673931
sg24
I715213754
sg25
S'bba6b3bea13c9929404db6d8fa06d1428c9bb7e4'
p3458
sg27
I01
sg28
I00
sg29
I00
sg30
(lp3459
(dp3460
S'send_stats'
p3461
I01
sS'fails'
p3462
I1
sS'verified'
p3463
I01
sS'scrape_incomplete'
p3464
I-1
sS'min_announce'
p3465
NsS'scrape_downloaded'
p3466
I-1
sS'url'
p3467
S'http://bt4.t-ru.org/ann'
p3468
sS'last_error'
p3469
(dp3470
S'category'
p3471
S'bdecode error'
p3472
sS'value'
p3473
I3
ssS'fail_limit'
p3474
I0
sS'next_announce'
p3475
NsS'complete_sent'
p3476
I00
sS'source'
p3477
I2
sS'trackerid'
p3478
S''
sS'start_sent'
p3479
I01
sS'tier'
p3480
I0
sS'scrape_complete'
p3481
I-1
sS'message'
p3482
S''
sS'updating'
p3483
I00
sa(dp3484
S'send_stats'
p3485
I01
sS'fails'
p3486
I3
sS'verified'
p3487
I00
sS'scrape_incomplete'
p3488
I-1
sS'min_announce'
p3489
NsS'scrape_downloaded'
p3490
I-1
sS'url'
p3491
S'http://retracker.local/announce'
p3492
sS'last_error'
p3493
(dp3494
S'category'
p3495
S'asio.netdb'
p3496
sS'value'
p3497
I1
ssS'fail_limit'
p3498
I0
sS'next_announce'
p3499
NsS'complete_sent'
p3500
I00
sS'source'
p3501
I2
sS'trackerid'
p3502
S''
sS'start_sent'
p3503
I00
sS'tier'
p3504
I1
sS'scrape_complete'
p3505
I-1
sS'message'
p3506
S''
sS'updating'
p3507
I00
sasg56
Nsg57
I00
sg58
F2
sg59
I01
sbasb.